; ModuleID = '/home/sanghu/TracerX/tracerx/test/Dogfood/Output/ImmutableSet.cpp.tmp1.bc'
target datalayout = "e-p:64:64:64-i1:8:8-i8:8:8-i16:16:16-i32:32:32-i64:64:64-f32:32:32-f64:64:64-v64:64:64-v128:128:128-a0:0:64-s0:64:64-f80:128:128-n8:16:32:64-S128"
target triple = "x86_64-unknown-linux-gnu"

%"class.klee::ImmutableTree<unsigned int, unsigned int, klee::_Identity<unsigned int>, std::less<unsigned int> >::Node" = type { %"class.klee::ImmutableTree<unsigned int, unsigned int, klee::_Identity<unsigned int>, std::less<unsigned int> >::Node"*, %"c
%struct.anon = type { void (i8*)*, i8*, i8* }
%"class.klee::ImmutableSet" = type { %"class.klee::ImmutableTree" }
%"class.klee::ImmutableTree" = type { %"class.klee::ImmutableTree<unsigned int, unsigned int, klee::_Identity<unsigned int>, std::less<unsigned int> >::Node"* }
%"class.klee::ImmutableTree<unsigned int, unsigned int, klee::_Identity<unsigned int>, std::less<unsigned int> >::iterator" = type { %"class.klee::ImmutableTree<unsigned int, unsigned int, klee::_Identity<unsigned int>, std::less<unsigned int> >::Node"*,
%"class.klee::FixedStack" = type { i32, i32, %"class.klee::ImmutableTree<unsigned int, unsigned int, klee::_Identity<unsigned int>, std::less<unsigned int> >::Node"** }

@.str = private unnamed_addr constant [18 x i8] c"set.size() == num\00", align 1
@.str1 = private unnamed_addr constant [59 x i8] c"/home/sanghu/TracerX/tracerx/test/Dogfood/ImmutableSet.cpp\00", align 1
@__PRETTY_FUNCTION__._Z9check_setRN4klee12ImmutableSetIjSt4lessIjEEEjPj = private unnamed_addr constant [50 x i8] c"void check_set(T &, unsigned int, unsigned int *)\00", align 1
@.str2 = private unnamed_addr constant [6 x i8] c"range\00", align 1
@.str3 = private unnamed_addr constant [57 x i8] c"iff(contains(values, values+num, item), set.count(item))\00", align 1
@.str4 = private unnamed_addr constant [16 x i8] c"set.count(item)\00", align 1
@.str5 = private unnamed_addr constant [16 x i8] c"it != set.end()\00", align 1
@.str6 = private unnamed_addr constant [12 x i8] c"*it == item\00", align 1
@.str7 = private unnamed_addr constant [9 x i8] c"lb == it\00", align 1
@.str8 = private unnamed_addr constant [11 x i8] c"--ub == it\00", align 1
@.str9 = private unnamed_addr constant [29 x i8] c"set.find(item2) == set.end()\00", align 1
@.str10 = private unnamed_addr constant [12 x i8] c"*it < item2\00", align 1
@.str11 = private unnamed_addr constant [13 x i8] c"*it >= item2\00", align 1
@.str12 = private unnamed_addr constant [13 x i8] c"*it <= item2\00", align 1
@.str13 = private unnamed_addr constant [12 x i8] c"*it > item2\00", align 1
@.str14 = private unnamed_addr constant [17 x i8] c"equal(set2, set)\00", align 1
@__PRETTY_FUNCTION__._Z4testv = private unnamed_addr constant [12 x i8] c"void test()\00", align 1
@.str15 = private unnamed_addr constant [18 x i8] c"!equal(set3, set)\00", align 1
@.str16 = private unnamed_addr constant [30 x i8] c"set3.size() + 1 == set.size()\00", align 1
@.str17 = private unnamed_addr constant [18 x i8] c"!set3.count(item)\00", align 1
@.str18 = private unnamed_addr constant [30 x i8] c"set3.size() == set.size() + 1\00", align 1
@.str19 = private unnamed_addr constant [17 x i8] c"set3.count(item)\00", align 1
@.str20 = private unnamed_addr constant [23 x i8] c"T::getAllocated() == 0\00", align 1
@__PRETTY_FUNCTION__.main = private unnamed_addr constant [23 x i8] c"int main(int, char **)\00", align 1
@_ZN4klee13ImmutableTreeIjjNS_9_IdentityIjEESt4lessIjEE4Node10terminatorE = internal global %"class.klee::ImmutableTree<unsigned int, unsigned int, klee::_Identity<unsigned int>, std::less<unsigned int> >::Node" zeroinitializer, align 8
@_ZGVN4klee13ImmutableTreeIjjNS_9_IdentityIjEESt4lessIjEE4Node10terminatorE = internal unnamed_addr global i64 0
@_ZN4klee13ImmutableTreeIjjNS_9_IdentityIjEESt4lessIjEE9allocatedE = internal unnamed_addr global i64 0, align 8
@.str21 = private unnamed_addr constant [15 x i8] c"!stack.empty()\00", align 1
@.str22 = private unnamed_addr constant [71 x i8] c"/home/sanghu/TracerX/tracerx/include/klee/Internal/ADT/ImmutableTree.h\00", align 1
@__PRETTY_FUNCTION__._ZN4klee13ImmutableTreeIjjNS_9_IdentityIjEESt4lessIjEE8iteratorppEv = private unnamed_addr constant [265 x i8] c"klee::ImmutableTree::iterator &klee::ImmutableTree<unsigned int, unsigned int, klee::_Identity<unsigned int>, std::less<
@llvm.global_ctors = appending global [1 x { i32, void ()* }] [{ i32, void ()* } { i32 65535, void ()* @__cxx_global_var_init }]
@NumAtExit = internal unnamed_addr global i32 0, align 4
@AtExit = internal unnamed_addr global [128 x %struct.anon] zeroinitializer, align 16
@.str24 = private unnamed_addr constant [34 x i8] c"FIXME: __cxa_atexit being ignored\00", align 1
@.str125 = private unnamed_addr constant [15 x i8] c"__cxa_atexit.c\00", align 1
@.str226 = private unnamed_addr constant [32 x i8] c"__cxa_atexit: no room in array!\00", align 1
@.str327 = private unnamed_addr constant [5 x i8] c"exec\00", align 1
@llvm.global_dtors = appending global [1 x { i32, void ()* }] [{ i32, void ()* } { i32 65535, void ()* @RunAtExit }]
@.str48 = private unnamed_addr constant [22 x i8] c"klee_div_zero_check.c\00", align 1
@.str149 = private unnamed_addr constant [15 x i8] c"divide by zero\00", align 1
@.str250 = private unnamed_addr constant [8 x i8] c"div.err\00", align 1
@.str351 = private unnamed_addr constant [8 x i8] c"IGNORED\00", align 1
@.str1452 = private unnamed_addr constant [16 x i8] c"overshift error\00", align 1
@.str25 = private unnamed_addr constant [14 x i8] c"overshift.err\00", align 1
@.str653 = private unnamed_addr constant [13 x i8] c"klee_range.c\00", align 1
@.str1754 = private unnamed_addr constant [14 x i8] c"invalid range\00", align 1
@.str28 = private unnamed_addr constant [5 x i8] c"user\00", align 1

; Function Attrs: nounwind readnone uwtable
define internal fastcc zeroext i1 @_Z3iffbb(i1 zeroext %a, i1 zeroext %b) #0 {
  %tmp = xor i1 %a, %b, !dbg !965
  %1 = xor i1 %tmp, true, !dbg !965
  ret i1 %1, !dbg !965
}

; Function Attrs: nounwind uwtable
define internal fastcc zeroext i1 @_Z5equalRN4klee12ImmutableSetIjSt4lessIjEEES4_(%"class.klee::ImmutableSet"* nocapture readonly %a, %"class.klee::ImmutableSet"* nocapture readonly %b) #1 {
  %aIt = alloca %"class.klee::ImmutableTree<unsigned int, unsigned int, klee::_Identity<unsigned int>, std::less<unsigned int> >::iterator", align 8
  %ae = alloca %"class.klee::ImmutableTree<unsigned int, unsigned int, klee::_Identity<unsigned int>, std::less<unsigned int> >::iterator", align 8
  %bIt = alloca %"class.klee::ImmutableTree<unsigned int, unsigned int, klee::_Identity<unsigned int>, std::less<unsigned int> >::iterator", align 8
  %be = alloca %"class.klee::ImmutableTree<unsigned int, unsigned int, klee::_Identity<unsigned int>, std::less<unsigned int> >::iterator", align 8
  call fastcc void @_ZNK4klee12ImmutableSetIjSt4lessIjEE5beginEv(%"class.klee::ImmutableTree<unsigned int, unsigned int, klee::_Identity<unsigned int>, std::less<unsigned int> >::iterator"* sret %aIt, %"class.klee::ImmutableSet"* %a), !dbg !966
  call fastcc void @_ZNK4klee12ImmutableSetIjSt4lessIjEE3endEv(%"class.klee::ImmutableTree<unsigned int, unsigned int, klee::_Identity<unsigned int>, std::less<unsigned int> >::iterator"* sret %ae, %"class.klee::ImmutableSet"* %a), !dbg !966
  call fastcc void @_ZNK4klee12ImmutableSetIjSt4lessIjEE5beginEv(%"class.klee::ImmutableTree<unsigned int, unsigned int, klee::_Identity<unsigned int>, std::less<unsigned int> >::iterator"* sret %bIt, %"class.klee::ImmutableSet"* %b), !dbg !966
  call fastcc void @_ZNK4klee12ImmutableSetIjSt4lessIjEE3endEv(%"class.klee::ImmutableTree<unsigned int, unsigned int, klee::_Identity<unsigned int>, std::less<unsigned int> >::iterator"* sret %be, %"class.klee::ImmutableSet"* %b), !dbg !966
  %1 = call fastcc zeroext i1 @_ZN4klee13ImmutableTreeIjjNS_9_IdentityIjEESt4lessIjEE8iteratorneERKS6_(%"class.klee::ImmutableTree<unsigned int, unsigned int, klee::_Identity<unsigned int>, std::less<unsigned int> >::iterator"* %aIt, %"class.klee::Immuta
  br i1 %1, label %.lr.ph, label %split, !dbg !967

.lr.ph:                                           ; preds = %0, %9
  %2 = call fastcc zeroext i1 @_ZN4klee13ImmutableTreeIjjNS_9_IdentityIjEESt4lessIjEE8iteratorneERKS6_(%"class.klee::ImmutableTree<unsigned int, unsigned int, klee::_Identity<unsigned int>, std::less<unsigned int> >::iterator"* %bIt, %"class.klee::Immuta
  br i1 %2, label %3, label %split, !dbg !967

; <label>:3                                       ; preds = %.lr.ph
  %4 = call fastcc i32* @_ZN4klee13ImmutableTreeIjjNS_9_IdentityIjEESt4lessIjEE8iteratordeEv(%"class.klee::ImmutableTree<unsigned int, unsigned int, klee::_Identity<unsigned int>, std::less<unsigned int> >::iterator"* %aIt), !dbg !969
  %5 = load i32* %4, align 4, !dbg !969
  %6 = call fastcc i32* @_ZN4klee13ImmutableTreeIjjNS_9_IdentityIjEESt4lessIjEE8iteratordeEv(%"class.klee::ImmutableTree<unsigned int, unsigned int, klee::_Identity<unsigned int>, std::less<unsigned int> >::iterator"* %bIt), !dbg !969
  %7 = load i32* %6, align 4, !dbg !969
  %8 = icmp eq i32 %5, %7, !dbg !969
  br i1 %8, label %9, label %.loopexit, !dbg !969

; <label>:9                                       ; preds = %3
  call fastcc void @_ZN4klee13ImmutableTreeIjjNS_9_IdentityIjEESt4lessIjEE8iteratorppEv(%"class.klee::ImmutableTree<unsigned int, unsigned int, klee::_Identity<unsigned int>, std::less<unsigned int> >::iterator"* %aIt), !dbg !967
  call fastcc void @_ZN4klee13ImmutableTreeIjjNS_9_IdentityIjEESt4lessIjEE8iteratorppEv(%"class.klee::ImmutableTree<unsigned int, unsigned int, klee::_Identity<unsigned int>, std::less<unsigned int> >::iterator"* %bIt), !dbg !967
  %10 = call fastcc zeroext i1 @_ZN4klee13ImmutableTreeIjjNS_9_IdentityIjEESt4lessIjEE8iteratorneERKS6_(%"class.klee::ImmutableTree<unsigned int, unsigned int, klee::_Identity<unsigned int>, std::less<unsigned int> >::iterator"* %aIt, %"class.klee::Immut
  br i1 %10, label %.lr.ph, label %split, !dbg !967

split:                                            ; preds = %9, %.lr.ph, %0
  %11 = call fastcc zeroext i1 @_ZN4klee13ImmutableTreeIjjNS_9_IdentityIjEESt4lessIjEE8iteratorneERKS6_(%"class.klee::ImmutableTree<unsigned int, unsigned int, klee::_Identity<unsigned int>, std::less<unsigned int> >::iterator"* %aIt, %"class.klee::Immut
  br i1 %11, label %.loopexit, label %12, !dbg !971

; <label>:12                                      ; preds = %split
  %13 = call fastcc zeroext i1 @_ZN4klee13ImmutableTreeIjjNS_9_IdentityIjEESt4lessIjEE8iteratorneERKS6_(%"class.klee::ImmutableTree<unsigned int, unsigned int, klee::_Identity<unsigned int>, std::less<unsigned int> >::iterator"* %bIt, %"class.klee::Immut
  %not. = xor i1 %13, true, !dbg !973
  br label %.loopexit, !dbg !973

.loopexit:                                        ; preds = %3, %12, %split
  %.0 = phi i1 [ false, %split ], [ %not., %12 ], [ false, %3 ]
  call fastcc void @_ZN4klee13ImmutableTreeIjjNS_9_IdentityIjEESt4lessIjEE8iteratorD2Ev(%"class.klee::ImmutableTree<unsigned int, unsigned int, klee::_Identity<unsigned int>, std::less<unsigned int> >::iterator"* %be), !dbg !975
  call fastcc void @_ZN4klee13ImmutableTreeIjjNS_9_IdentityIjEESt4lessIjEE8iteratorD2Ev(%"class.klee::ImmutableTree<unsigned int, unsigned int, klee::_Identity<unsigned int>, std::less<unsigned int> >::iterator"* %bIt), !dbg !975
  call fastcc void @_ZN4klee13ImmutableTreeIjjNS_9_IdentityIjEESt4lessIjEE8iteratorD2Ev(%"class.klee::ImmutableTree<unsigned int, unsigned int, klee::_Identity<unsigned int>, std::less<unsigned int> >::iterator"* %ae), !dbg !975
  call fastcc void @_ZN4klee13ImmutableTreeIjjNS_9_IdentityIjEESt4lessIjEE8iteratorD2Ev(%"class.klee::ImmutableTree<unsigned int, unsigned int, klee::_Identity<unsigned int>, std::less<unsigned int> >::iterator"* %aIt), !dbg !975
  ret i1 %.0, !dbg !976
}

; Function Attrs: nounwind uwtable
define internal fastcc void @_ZNK4klee12ImmutableSetIjSt4lessIjEE5beginEv(%"class.klee::ImmutableTree<unsigned int, unsigned int, klee::_Identity<unsigned int>, std::less<unsigned int> >::iterator"* noalias nocapture sret %agg.result, %"class.klee::Immut
  %.idx = getelementptr %"class.klee::ImmutableSet"* %this, i64 0, i32 0, i32 0
  %.idx.val = load %"class.klee::ImmutableTree<unsigned int, unsigned int, klee::_Identity<unsigned int>, std::less<unsigned int> >::Node"** %.idx, align 8
  tail call fastcc void @_ZNK4klee13ImmutableTreeIjjNS_9_IdentityIjEESt4lessIjEE5beginEv(%"class.klee::ImmutableTree<unsigned int, unsigned int, klee::_Identity<unsigned int>, std::less<unsigned int> >::iterator"* sret %agg.result, %"class.klee::Immutabl
  ret void, !dbg !977
}

; Function Attrs: nounwind uwtable
define internal fastcc void @_ZNK4klee12ImmutableSetIjSt4lessIjEE3endEv(%"class.klee::ImmutableTree<unsigned int, unsigned int, klee::_Identity<unsigned int>, std::less<unsigned int> >::iterator"* noalias nocapture sret %agg.result, %"class.klee::Immutab
  %.idx = getelementptr %"class.klee::ImmutableSet"* %this, i64 0, i32 0, i32 0
  %.idx.val = load %"class.klee::ImmutableTree<unsigned int, unsigned int, klee::_Identity<unsigned int>, std::less<unsigned int> >::Node"** %.idx, align 8
  tail call fastcc void @_ZNK4klee13ImmutableTreeIjjNS_9_IdentityIjEESt4lessIjEE3endEv(%"class.klee::ImmutableTree<unsigned int, unsigned int, klee::_Identity<unsigned int>, std::less<unsigned int> >::iterator"* sret %agg.result, %"class.klee::ImmutableT
  ret void, !dbg !979
}

; Function Attrs: nounwind uwtable
define internal fastcc zeroext i1 @_ZN4klee13ImmutableTreeIjjNS_9_IdentityIjEESt4lessIjEE8iteratorneERKS6_(%"class.klee::ImmutableTree<unsigned int, unsigned int, klee::_Identity<unsigned int>, std::less<unsigned int> >::iterator"* nocapture readonly %th
  %1 = getelementptr inbounds %"class.klee::ImmutableTree<unsigned int, unsigned int, klee::_Identity<unsigned int>, std::less<unsigned int> >::iterator"* %this, i64 0, i32 1, !dbg !981
  %2 = getelementptr inbounds %"class.klee::ImmutableTree<unsigned int, unsigned int, klee::_Identity<unsigned int>, std::less<unsigned int> >::iterator"* %b, i64 0, i32 1, !dbg !981
  %3 = tail call fastcc zeroext i1 @_ZN4klee10FixedStackIPNS_13ImmutableTreeIjjNS_9_IdentityIjEESt4lessIjEE4NodeEEneERKS9_(%"class.klee::FixedStack"* %1, %"class.klee::FixedStack"* %2), !dbg !981
  ret i1 %3, !dbg !981
}

; Function Attrs: nounwind uwtable
define internal fastcc i32* @_ZN4klee13ImmutableTreeIjjNS_9_IdentityIjEESt4lessIjEE8iteratordeEv(%"class.klee::ImmutableTree<unsigned int, unsigned int, klee::_Identity<unsigned int>, std::less<unsigned int> >::iterator"* nocapture readonly %this) #1 ali
  %.idx = getelementptr %"class.klee::ImmutableTree<unsigned int, unsigned int, klee::_Identity<unsigned int>, std::less<unsigned int> >::iterator"* %this, i64 0, i32 1, i32 0
  %.idx.val = load i32* %.idx, align 4
  %.idx1 = getelementptr %"class.klee::ImmutableTree<unsigned int, unsigned int, klee::_Identity<unsigned int>, std::less<unsigned int> >::iterator"* %this, i64 0, i32 1, i32 2
  %.idx1.val = load %"class.klee::ImmutableTree<unsigned int, unsigned int, klee::_Identity<unsigned int>, std::less<unsigned int> >::Node"*** %.idx1, align 8
  %1 = tail call fastcc %"class.klee::ImmutableTree<unsigned int, unsigned int, klee::_Identity<unsigned int>, std::less<unsigned int> >::Node"** @_ZN4klee10FixedStackIPNS_13ImmutableTreeIjjNS_9_IdentityIjEESt4lessIjEE4NodeEE4backEv(i32 %.idx.val, %"clas
  %2 = load %"class.klee::ImmutableTree<unsigned int, unsigned int, klee::_Identity<unsigned int>, std::less<unsigned int> >::Node"** %1, align 8, !dbg !982
  %3 = getelementptr inbounds %"class.klee::ImmutableTree<unsigned int, unsigned int, klee::_Identity<unsigned int>, std::less<unsigned int> >::Node"* %2, i64 0, i32 2, !dbg !983
  ret i32* %3, !dbg !983
}

; Function Attrs: nounwind uwtable
define internal fastcc void @_ZN4klee13ImmutableTreeIjjNS_9_IdentityIjEESt4lessIjEE8iteratorppEv(%"class.klee::ImmutableTree<unsigned int, unsigned int, klee::_Identity<unsigned int>, std::less<unsigned int> >::iterator"* nocapture %this) #1 align 2 {
  %1 = getelementptr inbounds %"class.klee::ImmutableTree<unsigned int, unsigned int, klee::_Identity<unsigned int>, std::less<unsigned int> >::iterator"* %this, i64 0, i32 1, !dbg !984
  %.idx1 = getelementptr %"class.klee::FixedStack"* %1, i64 0, i32 0
  %.idx1.val = load i32* %.idx1, align 4
  %2 = tail call fastcc zeroext i1 @_ZN4klee10FixedStackIPNS_13ImmutableTreeIjjNS_9_IdentityIjEESt4lessIjEE4NodeEE5emptyEv(i32 %.idx1.val)
  br i1 %2, label %3, label %4, !dbg !984

; <label>:3                                       ; preds = %0
  tail call void @__assert_fail(i8* getelementptr inbounds ([15 x i8]* @.str21, i64 0, i64 0), i8* getelementptr inbounds ([71 x i8]* @.str22, i64 0, i64 0), i32 214, i8* getelementptr inbounds ([265 x i8]* @__PRETTY_FUNCTION__._ZN4klee13ImmutableTreeIjj
  unreachable, !dbg !984

; <label>:4                                       ; preds = %0
  %.idx4.val = load i32* %.idx1, align 4
  %.idx5 = getelementptr %"class.klee::ImmutableTree<unsigned int, unsigned int, klee::_Identity<unsigned int>, std::less<unsigned int> >::iterator"* %this, i64 0, i32 1, i32 2
  %.idx5.val = load %"class.klee::ImmutableTree<unsigned int, unsigned int, klee::_Identity<unsigned int>, std::less<unsigned int> >::Node"*** %.idx5, align 8
  %5 = tail call fastcc %"class.klee::ImmutableTree<unsigned int, unsigned int, klee::_Identity<unsigned int>, std::less<unsigned int> >::Node"** @_ZN4klee10FixedStackIPNS_13ImmutableTreeIjjNS_9_IdentityIjEESt4lessIjEE4NodeEE4backEv(i32 %.idx4.val, %"cla
  %6 = load %"class.klee::ImmutableTree<unsigned int, unsigned int, klee::_Identity<unsigned int>, std::less<unsigned int> >::Node"** %5, align 8, !dbg !985
  %7 = getelementptr inbounds %"class.klee::ImmutableTree<unsigned int, unsigned int, klee::_Identity<unsigned int>, std::less<unsigned int> >::Node"* %6, i64 0, i32 1, !dbg !986
  %8 = load %"class.klee::ImmutableTree<unsigned int, unsigned int, klee::_Identity<unsigned int>, std::less<unsigned int> >::Node"** %7, align 8, !dbg !986
  %9 = tail call fastcc zeroext i1 @_ZN4klee13ImmutableTreeIjjNS_9_IdentityIjEESt4lessIjEE4Node12isTerminatorEv(%"class.klee::ImmutableTree<unsigned int, unsigned int, klee::_Identity<unsigned int>, std::less<unsigned int> >::Node"* %8), !dbg !986
  br i1 %9, label %.preheader, label %18, !dbg !986

.preheader:                                       ; preds = %4, %12
  %10 = phi %"class.klee::ImmutableTree<unsigned int, unsigned int, klee::_Identity<unsigned int>, std::less<unsigned int> >::Node"* [ %14, %12 ], [ %6, %4 ]
  tail call fastcc void @_ZN4klee10FixedStackIPNS_13ImmutableTreeIjjNS_9_IdentityIjEESt4lessIjEE4NodeEE8pop_backEv(%"class.klee::FixedStack"* %1), !dbg !988
  %.idx.val = load i32* %.idx1, align 4
  %11 = tail call fastcc zeroext i1 @_ZN4klee10FixedStackIPNS_13ImmutableTreeIjjNS_9_IdentityIjEESt4lessIjEE4NodeEE5emptyEv(i32 %.idx.val)
  br i1 %11, label %.loopexit, label %12, !dbg !992

; <label>:12                                      ; preds = %.preheader
  %.idx2.val = load i32* %.idx1, align 4
  %.idx3.val = load %"class.klee::ImmutableTree<unsigned int, unsigned int, klee::_Identity<unsigned int>, std::less<unsigned int> >::Node"*** %.idx5, align 8
  %13 = tail call fastcc %"class.klee::ImmutableTree<unsigned int, unsigned int, klee::_Identity<unsigned int>, std::less<unsigned int> >::Node"** @_ZN4klee10FixedStackIPNS_13ImmutableTreeIjjNS_9_IdentityIjEESt4lessIjEE4NodeEE4backEv(i32 %.idx2.val, %"cl
  %14 = load %"class.klee::ImmutableTree<unsigned int, unsigned int, klee::_Identity<unsigned int>, std::less<unsigned int> >::Node"** %13, align 8, !dbg !994
  %15 = getelementptr inbounds %"class.klee::ImmutableTree<unsigned int, unsigned int, klee::_Identity<unsigned int>, std::less<unsigned int> >::Node"* %14, i64 0, i32 0, !dbg !996
  %16 = load %"class.klee::ImmutableTree<unsigned int, unsigned int, klee::_Identity<unsigned int>, std::less<unsigned int> >::Node"** %15, align 8, !dbg !996
  %17 = icmp eq %"class.klee::ImmutableTree<unsigned int, unsigned int, klee::_Identity<unsigned int>, std::less<unsigned int> >::Node"* %10, %16, !dbg !996
  br i1 %17, label %.loopexit, label %.preheader, !dbg !996

; <label>:18                                      ; preds = %4
  %.val = load %"class.klee::ImmutableTree<unsigned int, unsigned int, klee::_Identity<unsigned int>, std::less<unsigned int> >::Node"** %7, align 8
  tail call fastcc void @_ZN4klee10FixedStackIPNS_13ImmutableTreeIjjNS_9_IdentityIjEESt4lessIjEE4NodeEE9push_backERKS8_(%"class.klee::FixedStack"* %1, %"class.klee::ImmutableTree<unsigned int, unsigned int, klee::_Identity<unsigned int>, std::less<unsign
  %.pn2 = load %"class.klee::ImmutableTree<unsigned int, unsigned int, klee::_Identity<unsigned int>, std::less<unsigned int> >::Node"** %7, align 8, !dbg !998
  %storemerge.in3 = getelementptr inbounds %"class.klee::ImmutableTree<unsigned int, unsigned int, klee::_Identity<unsigned int>, std::less<unsigned int> >::Node"* %.pn2, i64 0, i32 0, !dbg !998
  %storemerge4 = load %"class.klee::ImmutableTree<unsigned int, unsigned int, klee::_Identity<unsigned int>, std::less<unsigned int> >::Node"** %storemerge.in3, align 8, !dbg !998
  %19 = tail call fastcc zeroext i1 @_ZN4klee13ImmutableTreeIjjNS_9_IdentityIjEESt4lessIjEE4Node12isTerminatorEv(%"class.klee::ImmutableTree<unsigned int, unsigned int, klee::_Identity<unsigned int>, std::less<unsigned int> >::Node"* %storemerge4), !dbg 
  br i1 %19, label %.loopexit, label %.lr.ph, !dbg !998

.lr.ph:                                           ; preds = %18, %.lr.ph
  %n.0 = phi %"class.klee::ImmutableTree<unsigned int, unsigned int, klee::_Identity<unsigned int>, std::less<unsigned int> >::Node"* [ %storemerge, %.lr.ph ], [ %storemerge4, %18 ]
  call fastcc void @_ZN4klee10FixedStackIPNS_13ImmutableTreeIjjNS_9_IdentityIjEESt4lessIjEE4NodeEE9push_backERKS8_(%"class.klee::FixedStack"* %1, %"class.klee::ImmutableTree<unsigned int, unsigned int, klee::_Identity<unsigned int>, std::less<unsigned in
  %storemerge.in = getelementptr inbounds %"class.klee::ImmutableTree<unsigned int, unsigned int, klee::_Identity<unsigned int>, std::less<unsigned int> >::Node"* %n.0, i64 0, i32 0, !dbg !998
  %storemerge = load %"class.klee::ImmutableTree<unsigned int, unsigned int, klee::_Identity<unsigned int>, std::less<unsigned int> >::Node"** %storemerge.in, align 8, !dbg !998
  %20 = tail call fastcc zeroext i1 @_ZN4klee13ImmutableTreeIjjNS_9_IdentityIjEESt4lessIjEE4Node12isTerminatorEv(%"class.klee::ImmutableTree<unsigned int, unsigned int, klee::_Identity<unsigned int>, std::less<unsigned int> >::Node"* %storemerge), !dbg !
  br i1 %20, label %.loopexit, label %.lr.ph, !dbg !998

.loopexit:                                        ; preds = %.lr.ph, %.preheader, %12, %18
  ret void
}

; Function Attrs: nounwind uwtable
define internal fastcc void @_ZN4klee13ImmutableTreeIjjNS_9_IdentityIjEESt4lessIjEE8iteratorD2Ev(%"class.klee::ImmutableTree<unsigned int, unsigned int, klee::_Identity<unsigned int>, std::less<unsigned int> >::iterator"* nocapture readonly %this) unname
  %1 = getelementptr inbounds %"class.klee::ImmutableTree<unsigned int, unsigned int, klee::_Identity<unsigned int>, std::less<unsigned int> >::iterator"* %this, i64 0, i32 0, !dbg !1001
  %2 = load %"class.klee::ImmutableTree<unsigned int, unsigned int, klee::_Identity<unsigned int>, std::less<unsigned int> >::Node"** %1, align 8, !dbg !1001
  tail call fastcc void @_ZN4klee13ImmutableTreeIjjNS_9_IdentityIjEESt4lessIjEE4Node6decrefEv(%"class.klee::ImmutableTree<unsigned int, unsigned int, klee::_Identity<unsigned int>, std::less<unsigned int> >::Node"* %2), !dbg !1001
  %.idx = getelementptr %"class.klee::ImmutableTree<unsigned int, unsigned int, klee::_Identity<unsigned int>, std::less<unsigned int> >::iterator"* %this, i64 0, i32 1, i32 2
  %.idx.val = load %"class.klee::ImmutableTree<unsigned int, unsigned int, klee::_Identity<unsigned int>, std::less<unsigned int> >::Node"*** %.idx, align 8
  tail call fastcc void @_ZN4klee10FixedStackIPNS_13ImmutableTreeIjjNS_9_IdentityIjEESt4lessIjEE4NodeEED2Ev(%"class.klee::ImmutableTree<unsigned int, unsigned int, klee::_Identity<unsigned int>, std::less<unsigned int> >::Node"** %.idx.val)
  ret void, !dbg !1004
}

; Function Attrs: nounwind uwtable
define internal fastcc void @_Z9check_setRN4klee12ImmutableSetIjSt4lessIjEEEjPj(%"class.klee::ImmutableSet"* nocapture readonly %set, i32 %num, i32* readonly %values) #1 {
  %item = alloca i32, align 4
  %item1 = alloca i32, align 4
  %it = alloca %"class.klee::ImmutableTree<unsigned int, unsigned int, klee::_Identity<unsigned int>, std::less<unsigned int> >::iterator", align 8
  %lb = alloca %"class.klee::ImmutableTree<unsigned int, unsigned int, klee::_Identity<unsigned int>, std::less<unsigned int> >::iterator", align 8
  %ub = alloca %"class.klee::ImmutableTree<unsigned int, unsigned int, klee::_Identity<unsigned int>, std::less<unsigned int> >::iterator", align 8
  %1 = alloca %"class.klee::ImmutableTree<unsigned int, unsigned int, klee::_Identity<unsigned int>, std::less<unsigned int> >::iterator", align 8
  %item2 = alloca i32, align 4
  %2 = alloca %"class.klee::ImmutableTree<unsigned int, unsigned int, klee::_Identity<unsigned int>, std::less<unsigned int> >::iterator", align 8
  %3 = alloca %"class.klee::ImmutableTree<unsigned int, unsigned int, klee::_Identity<unsigned int>, std::less<unsigned int> >::iterator", align 8
  %lb2 = alloca %"class.klee::ImmutableTree<unsigned int, unsigned int, klee::_Identity<unsigned int>, std::less<unsigned int> >::iterator", align 8
  %it3 = alloca %"class.klee::ImmutableTree<unsigned int, unsigned int, klee::_Identity<unsigned int>, std::less<unsigned int> >::iterator", align 8
  %it4 = alloca %"class.klee::ImmutableTree<unsigned int, unsigned int, klee::_Identity<unsigned int>, std::less<unsigned int> >::iterator", align 8
  %ie = alloca %"class.klee::ImmutableTree<unsigned int, unsigned int, klee::_Identity<unsigned int>, std::less<unsigned int> >::iterator", align 8
  %ub5 = alloca %"class.klee::ImmutableTree<unsigned int, unsigned int, klee::_Identity<unsigned int>, std::less<unsigned int> >::iterator", align 8
  %it6 = alloca %"class.klee::ImmutableTree<unsigned int, unsigned int, klee::_Identity<unsigned int>, std::less<unsigned int> >::iterator", align 8
  %it7 = alloca %"class.klee::ImmutableTree<unsigned int, unsigned int, klee::_Identity<unsigned int>, std::less<unsigned int> >::iterator", align 8
  %ie8 = alloca %"class.klee::ImmutableTree<unsigned int, unsigned int, klee::_Identity<unsigned int>, std::less<unsigned int> >::iterator", align 8
  %4 = call fastcc i64 @_ZN4klee12ImmutableSetIjSt4lessIjEE4sizeEv(%"class.klee::ImmutableSet"* %set), !dbg !1005
  %5 = zext i32 %num to i64, !dbg !1005
  %6 = icmp eq i64 %4, %5, !dbg !1005
  br i1 %6, label %8, label %7, !dbg !1005

; <label>:7                                       ; preds = %0
  call void @__assert_fail(i8* getelementptr inbounds ([18 x i8]* @.str, i64 0, i64 0), i8* getelementptr inbounds ([59 x i8]* @.str1, i64 0, i64 0), i32 47, i8* getelementptr inbounds ([50 x i8]* @__PRETTY_FUNCTION__._Z9check_setRN4klee12ImmutableSetIjS
  unreachable, !dbg !1005

; <label>:8                                       ; preds = %0
  %9 = call i32 @klee_range(i32 0, i32 256, i8* getelementptr inbounds ([6 x i8]* @.str2, i64 0, i64 0)) #5, !dbg !1006
  store i32 %9, i32* %item, align 4, !dbg !1006
  %10 = getelementptr inbounds i32* %values, i64 %4, !dbg !1007
  %11 = call fastcc zeroext i1 @_Z8containsIPjjEbT_S1_T0_(i32* %values, i32* %10, i32 %9), !dbg !1007
  %12 = call fastcc i64 @_ZNK4klee12ImmutableSetIjSt4lessIjEE5countERKj(%"class.klee::ImmutableSet"* %set, i32* %item), !dbg !1007
  %13 = icmp ne i64 %12, 0, !dbg !1007
  %14 = call fastcc zeroext i1 @_Z3iffbb(i1 zeroext %11, i1 zeroext %13), !dbg !1007
  br i1 %14, label %.preheader, label %16, !dbg !1007

.preheader:                                       ; preds = %8
  %15 = icmp eq i32 %num, 0, !dbg !1008
  br i1 %15, label %._crit_edge12, label %.lr.ph11, !dbg !1008

; <label>:16                                      ; preds = %8
  call void @__assert_fail(i8* getelementptr inbounds ([57 x i8]* @.str3, i64 0, i64 0), i8* getelementptr inbounds ([59 x i8]* @.str1, i64 0, i64 0), i32 52, i8* getelementptr inbounds ([50 x i8]* @__PRETTY_FUNCTION__._Z9check_setRN4klee12ImmutableSetIj
  unreachable, !dbg !1007

.lr.ph11:                                         ; preds = %.preheader, %37
  %indvars.iv = phi i64 [ %indvars.iv.next, %37 ], [ 0, %.preheader ]
  %17 = getelementptr inbounds i32* %values, i64 %indvars.iv, !dbg !1010
  %18 = load i32* %17, align 4, !dbg !1010
  store i32 %18, i32* %item1, align 4, !dbg !1010
  %19 = call fastcc i64 @_ZNK4klee12ImmutableSetIjSt4lessIjEE5countERKj(%"class.klee::ImmutableSet"* %set, i32* %item1), !dbg !1012
  %20 = icmp eq i64 %19, 0, !dbg !1012
  br i1 %20, label %21, label %22, !dbg !1012

; <label>:21                                      ; preds = %.lr.ph11
  call void @__assert_fail(i8* getelementptr inbounds ([16 x i8]* @.str4, i64 0, i64 0), i8* getelementptr inbounds ([59 x i8]* @.str1, i64 0, i64 0), i32 58, i8* getelementptr inbounds ([50 x i8]* @__PRETTY_FUNCTION__._Z9check_setRN4klee12ImmutableSetIj
  unreachable, !dbg !1012

; <label>:22                                      ; preds = %.lr.ph11
  call fastcc void @_ZNK4klee12ImmutableSetIjSt4lessIjEE4findERKj(%"class.klee::ImmutableTree<unsigned int, unsigned int, klee::_Identity<unsigned int>, std::less<unsigned int> >::iterator"* sret %it, %"class.klee::ImmutableSet"* %set, i32* %item1), !dbg
  call fastcc void @_ZNK4klee12ImmutableSetIjSt4lessIjEE11lower_boundERKj(%"class.klee::ImmutableTree<unsigned int, unsigned int, klee::_Identity<unsigned int>, std::less<unsigned int> >::iterator"* sret %lb, %"class.klee::ImmutableSet"* %set, i32* %item
  call fastcc void @_ZNK4klee12ImmutableSetIjSt4lessIjEE11upper_boundERKj(%"class.klee::ImmutableTree<unsigned int, unsigned int, klee::_Identity<unsigned int>, std::less<unsigned int> >::iterator"* sret %ub, %"class.klee::ImmutableSet"* %set, i32* %item
  call fastcc void @_ZNK4klee12ImmutableSetIjSt4lessIjEE3endEv(%"class.klee::ImmutableTree<unsigned int, unsigned int, klee::_Identity<unsigned int>, std::less<unsigned int> >::iterator"* sret %1, %"class.klee::ImmutableSet"* %set), !dbg !1016
  %23 = call fastcc zeroext i1 @_ZN4klee13ImmutableTreeIjjNS_9_IdentityIjEESt4lessIjEE8iteratorneERKS6_(%"class.klee::ImmutableTree<unsigned int, unsigned int, klee::_Identity<unsigned int>, std::less<unsigned int> >::iterator"* %it, %"class.klee::Immuta
  br i1 %23, label %25, label %24, !dbg !1016

; <label>:24                                      ; preds = %22
  call void @__assert_fail(i8* getelementptr inbounds ([16 x i8]* @.str5, i64 0, i64 0), i8* getelementptr inbounds ([59 x i8]* @.str1, i64 0, i64 0), i32 62, i8* getelementptr inbounds ([50 x i8]* @__PRETTY_FUNCTION__._Z9check_setRN4klee12ImmutableSetIj
  unreachable, !dbg !1016

; <label>:25                                      ; preds = %22
  call fastcc void @_ZN4klee13ImmutableTreeIjjNS_9_IdentityIjEESt4lessIjEE8iteratorD2Ev(%"class.klee::ImmutableTree<unsigned int, unsigned int, klee::_Identity<unsigned int>, std::less<unsigned int> >::iterator"* %1), !dbg !1016
  %26 = call fastcc i32* @_ZN4klee13ImmutableTreeIjjNS_9_IdentityIjEESt4lessIjEE8iteratordeEv(%"class.klee::ImmutableTree<unsigned int, unsigned int, klee::_Identity<unsigned int>, std::less<unsigned int> >::iterator"* %it), !dbg !1017
  %27 = load i32* %26, align 4, !dbg !1017
  %28 = load i32* %item1, align 4, !dbg !1017
  %29 = icmp eq i32 %27, %28, !dbg !1017
  br i1 %29, label %31, label %30, !dbg !1017

; <label>:30                                      ; preds = %25
  call void @__assert_fail(i8* getelementptr inbounds ([12 x i8]* @.str6, i64 0, i64 0), i8* getelementptr inbounds ([59 x i8]* @.str1, i64 0, i64 0), i32 63, i8* getelementptr inbounds ([50 x i8]* @__PRETTY_FUNCTION__._Z9check_setRN4klee12ImmutableSetIj
  unreachable, !dbg !1017

; <label>:31                                      ; preds = %25
  %32 = call fastcc zeroext i1 @_ZN4klee13ImmutableTreeIjjNS_9_IdentityIjEESt4lessIjEE8iteratoreqERKS6_(%"class.klee::ImmutableTree<unsigned int, unsigned int, klee::_Identity<unsigned int>, std::less<unsigned int> >::iterator"* %lb, %"class.klee::Immuta
  br i1 %32, label %34, label %33, !dbg !1018

; <label>:33                                      ; preds = %31
  call void @__assert_fail(i8* getelementptr inbounds ([9 x i8]* @.str7, i64 0, i64 0), i8* getelementptr inbounds ([59 x i8]* @.str1, i64 0, i64 0), i32 64, i8* getelementptr inbounds ([50 x i8]* @__PRETTY_FUNCTION__._Z9check_setRN4klee12ImmutableSetIjS
  unreachable, !dbg !1018

; <label>:34                                      ; preds = %31
  call fastcc void @_ZN4klee13ImmutableTreeIjjNS_9_IdentityIjEESt4lessIjEE8iteratormmEv(%"class.klee::ImmutableTree<unsigned int, unsigned int, klee::_Identity<unsigned int>, std::less<unsigned int> >::iterator"* %ub), !dbg !1019
  %35 = call fastcc zeroext i1 @_ZN4klee13ImmutableTreeIjjNS_9_IdentityIjEESt4lessIjEE8iteratoreqERKS6_(%"class.klee::ImmutableTree<unsigned int, unsigned int, klee::_Identity<unsigned int>, std::less<unsigned int> >::iterator"* %ub, %"class.klee::Immuta
  br i1 %35, label %37, label %36, !dbg !1019

; <label>:36                                      ; preds = %34
  call void @__assert_fail(i8* getelementptr inbounds ([11 x i8]* @.str8, i64 0, i64 0), i8* getelementptr inbounds ([59 x i8]* @.str1, i64 0, i64 0), i32 65, i8* getelementptr inbounds ([50 x i8]* @__PRETTY_FUNCTION__._Z9check_setRN4klee12ImmutableSetIj
  unreachable, !dbg !1019

; <label>:37                                      ; preds = %34
  call fastcc void @_ZN4klee13ImmutableTreeIjjNS_9_IdentityIjEESt4lessIjEE8iteratorD2Ev(%"class.klee::ImmutableTree<unsigned int, unsigned int, klee::_Identity<unsigned int>, std::less<unsigned int> >::iterator"* %ub), !dbg !1020
  call fastcc void @_ZN4klee13ImmutableTreeIjjNS_9_IdentityIjEESt4lessIjEE8iteratorD2Ev(%"class.klee::ImmutableTree<unsigned int, unsigned int, klee::_Identity<unsigned int>, std::less<unsigned int> >::iterator"* %lb), !dbg !1020
  call fastcc void @_ZN4klee13ImmutableTreeIjjNS_9_IdentityIjEESt4lessIjEE8iteratorD2Ev(%"class.klee::ImmutableTree<unsigned int, unsigned int, klee::_Identity<unsigned int>, std::less<unsigned int> >::iterator"* %it), !dbg !1020
  %indvars.iv.next = add nuw nsw i64 %indvars.iv, 1, !dbg !1008
  %38 = trunc i64 %indvars.iv.next to i32, !dbg !1008
  %39 = icmp ult i32 %38, %num, !dbg !1008
  br i1 %39, label %.lr.ph11, label %._crit_edge12, !dbg !1008

._crit_edge12:                                    ; preds = %37, %.preheader
  %40 = call i32 @klee_range(i32 0, i32 256, i8* getelementptr inbounds ([6 x i8]* @.str2, i64 0, i64 0)) #5, !dbg !1021
  store i32 %40, i32* %item2, align 4, !dbg !1021
  %41 = call fastcc i64 @_ZNK4klee12ImmutableSetIjSt4lessIjEE5countERKj(%"class.klee::ImmutableSet"* %set, i32* %item2), !dbg !1022
  %42 = icmp eq i64 %41, 0, !dbg !1022
  br i1 %42, label %43, label %79, !dbg !1022

; <label>:43                                      ; preds = %._crit_edge12
  call fastcc void @_ZNK4klee12ImmutableSetIjSt4lessIjEE4findERKj(%"class.klee::ImmutableTree<unsigned int, unsigned int, klee::_Identity<unsigned int>, std::less<unsigned int> >::iterator"* sret %2, %"class.klee::ImmutableSet"* %set, i32* %item2), !dbg 
  call fastcc void @_ZNK4klee12ImmutableSetIjSt4lessIjEE3endEv(%"class.klee::ImmutableTree<unsigned int, unsigned int, klee::_Identity<unsigned int>, std::less<unsigned int> >::iterator"* sret %3, %"class.klee::ImmutableSet"* %set), !dbg !1024
  %44 = call fastcc zeroext i1 @_ZN4klee13ImmutableTreeIjjNS_9_IdentityIjEESt4lessIjEE8iteratoreqERKS6_(%"class.klee::ImmutableTree<unsigned int, unsigned int, klee::_Identity<unsigned int>, std::less<unsigned int> >::iterator"* %2, %"class.klee::Immutab
  br i1 %44, label %46, label %45, !dbg !1024

; <label>:45                                      ; preds = %43
  call void @__assert_fail(i8* getelementptr inbounds ([29 x i8]* @.str9, i64 0, i64 0), i8* getelementptr inbounds ([59 x i8]* @.str1, i64 0, i64 0), i32 71, i8* getelementptr inbounds ([50 x i8]* @__PRETTY_FUNCTION__._Z9check_setRN4klee12ImmutableSetIj
  unreachable, !dbg !1024

; <label>:46                                      ; preds = %43
  call fastcc void @_ZN4klee13ImmutableTreeIjjNS_9_IdentityIjEESt4lessIjEE8iteratorD2Ev(%"class.klee::ImmutableTree<unsigned int, unsigned int, klee::_Identity<unsigned int>, std::less<unsigned int> >::iterator"* %3), !dbg !1024
  call fastcc void @_ZN4klee13ImmutableTreeIjjNS_9_IdentityIjEESt4lessIjEE8iteratorD2Ev(%"class.klee::ImmutableTree<unsigned int, unsigned int, klee::_Identity<unsigned int>, std::less<unsigned int> >::iterator"* %2), !dbg !1024
  call fastcc void @_ZNK4klee12ImmutableSetIjSt4lessIjEE11lower_boundERKj(%"class.klee::ImmutableTree<unsigned int, unsigned int, klee::_Identity<unsigned int>, std::less<unsigned int> >::iterator"* sret %lb2, %"class.klee::ImmutableSet"* %set, i32* %ite
  call fastcc void @_ZNK4klee12ImmutableSetIjSt4lessIjEE5beginEv(%"class.klee::ImmutableTree<unsigned int, unsigned int, klee::_Identity<unsigned int>, std::less<unsigned int> >::iterator"* sret %it3, %"class.klee::ImmutableSet"* %set), !dbg !1027
  %47 = call fastcc zeroext i1 @_ZN4klee13ImmutableTreeIjjNS_9_IdentityIjEESt4lessIjEE8iteratorneERKS6_(%"class.klee::ImmutableTree<unsigned int, unsigned int, klee::_Identity<unsigned int>, std::less<unsigned int> >::iterator"* %it3, %"class.klee::Immut
  br i1 %47, label %.lr.ph8, label %._crit_edge9, !dbg !1027

._crit_edge9:                                     ; preds = %54, %46
  call fastcc void @_ZN4klee13ImmutableTreeIjjNS_9_IdentityIjEESt4lessIjEE8iteratorD2Ev(%"class.klee::ImmutableTree<unsigned int, unsigned int, klee::_Identity<unsigned int>, std::less<unsigned int> >::iterator"* %it3), !dbg !1027
  call fastcc void @_ZN4klee13ImmutableTreeIjjNS_9_IdentityIjEESt4lessIjEE8iteratorC2ERKS6_(%"class.klee::ImmutableTree<unsigned int, unsigned int, klee::_Identity<unsigned int>, std::less<unsigned int> >::iterator"* %it4, %"class.klee::ImmutableTree<uns
  call fastcc void @_ZNK4klee12ImmutableSetIjSt4lessIjEE3endEv(%"class.klee::ImmutableTree<unsigned int, unsigned int, klee::_Identity<unsigned int>, std::less<unsigned int> >::iterator"* sret %ie, %"class.klee::ImmutableSet"* %set), !dbg !1029
  %48 = call fastcc zeroext i1 @_ZN4klee13ImmutableTreeIjjNS_9_IdentityIjEESt4lessIjEE8iteratorneERKS6_(%"class.klee::ImmutableTree<unsigned int, unsigned int, klee::_Identity<unsigned int>, std::less<unsigned int> >::iterator"* %it4, %"class.klee::Immut
  br i1 %48, label %.lr.ph5, label %._crit_edge6, !dbg !1029

.lr.ph8:                                          ; preds = %46, %54
  %49 = call fastcc i32* @_ZN4klee13ImmutableTreeIjjNS_9_IdentityIjEESt4lessIjEE8iteratordeEv(%"class.klee::ImmutableTree<unsigned int, unsigned int, klee::_Identity<unsigned int>, std::less<unsigned int> >::iterator"* %it3), !dbg !1031
  %50 = load i32* %49, align 4, !dbg !1031
  %51 = load i32* %item2, align 4, !dbg !1031
  %52 = icmp ult i32 %50, %51, !dbg !1031
  br i1 %52, label %54, label %53, !dbg !1031

; <label>:53                                      ; preds = %.lr.ph8
  call void @__assert_fail(i8* getelementptr inbounds ([12 x i8]* @.str10, i64 0, i64 0), i8* getelementptr inbounds ([59 x i8]* @.str1, i64 0, i64 0), i32 75, i8* getelementptr inbounds ([50 x i8]* @__PRETTY_FUNCTION__._Z9check_setRN4klee12ImmutableSetI
  unreachable, !dbg !1031

; <label>:54                                      ; preds = %.lr.ph8
  call fastcc void @_ZN4klee13ImmutableTreeIjjNS_9_IdentityIjEESt4lessIjEE8iteratorppEv(%"class.klee::ImmutableTree<unsigned int, unsigned int, klee::_Identity<unsigned int>, std::less<unsigned int> >::iterator"* %it3), !dbg !1027
  %55 = call fastcc zeroext i1 @_ZN4klee13ImmutableTreeIjjNS_9_IdentityIjEESt4lessIjEE8iteratorneERKS6_(%"class.klee::ImmutableTree<unsigned int, unsigned int, klee::_Identity<unsigned int>, std::less<unsigned int> >::iterator"* %it3, %"class.klee::Immut
  br i1 %55, label %.lr.ph8, label %._crit_edge9, !dbg !1027

._crit_edge6:                                     ; preds = %62, %._crit_edge9
  call fastcc void @_ZN4klee13ImmutableTreeIjjNS_9_IdentityIjEESt4lessIjEE8iteratorD2Ev(%"class.klee::ImmutableTree<unsigned int, unsigned int, klee::_Identity<unsigned int>, std::less<unsigned int> >::iterator"* %ie), !dbg !1029
  call fastcc void @_ZN4klee13ImmutableTreeIjjNS_9_IdentityIjEESt4lessIjEE8iteratorD2Ev(%"class.klee::ImmutableTree<unsigned int, unsigned int, klee::_Identity<unsigned int>, std::less<unsigned int> >::iterator"* %it4), !dbg !1029
  call fastcc void @_ZNK4klee12ImmutableSetIjSt4lessIjEE11upper_boundERKj(%"class.klee::ImmutableTree<unsigned int, unsigned int, klee::_Identity<unsigned int>, std::less<unsigned int> >::iterator"* sret %ub5, %"class.klee::ImmutableSet"* %set, i32* %ite
  call fastcc void @_ZNK4klee12ImmutableSetIjSt4lessIjEE5beginEv(%"class.klee::ImmutableTree<unsigned int, unsigned int, klee::_Identity<unsigned int>, std::less<unsigned int> >::iterator"* sret %it6, %"class.klee::ImmutableSet"* %set), !dbg !1033
  %56 = call fastcc zeroext i1 @_ZN4klee13ImmutableTreeIjjNS_9_IdentityIjEESt4lessIjEE8iteratorneERKS6_(%"class.klee::ImmutableTree<unsigned int, unsigned int, klee::_Identity<unsigned int>, std::less<unsigned int> >::iterator"* %it6, %"class.klee::Immut
  br i1 %56, label %.lr.ph2, label %._crit_edge3, !dbg !1033

.lr.ph5:                                          ; preds = %._crit_edge9, %62
  %57 = call fastcc i32* @_ZN4klee13ImmutableTreeIjjNS_9_IdentityIjEESt4lessIjEE8iteratordeEv(%"class.klee::ImmutableTree<unsigned int, unsigned int, klee::_Identity<unsigned int>, std::less<unsigned int> >::iterator"* %it4), !dbg !1035
  %58 = load i32* %57, align 4, !dbg !1035
  %59 = load i32* %item2, align 4, !dbg !1035
  %60 = icmp ult i32 %58, %59, !dbg !1035
  br i1 %60, label %61, label %62, !dbg !1035

; <label>:61                                      ; preds = %.lr.ph5
  call void @__assert_fail(i8* getelementptr inbounds ([13 x i8]* @.str11, i64 0, i64 0), i8* getelementptr inbounds ([59 x i8]* @.str1, i64 0, i64 0), i32 77, i8* getelementptr inbounds ([50 x i8]* @__PRETTY_FUNCTION__._Z9check_setRN4klee12ImmutableSetI
  unreachable, !dbg !1035

; <label>:62                                      ; preds = %.lr.ph5
  call fastcc void @_ZN4klee13ImmutableTreeIjjNS_9_IdentityIjEESt4lessIjEE8iteratorppEv(%"class.klee::ImmutableTree<unsigned int, unsigned int, klee::_Identity<unsigned int>, std::less<unsigned int> >::iterator"* %it4), !dbg !1029
  %63 = call fastcc zeroext i1 @_ZN4klee13ImmutableTreeIjjNS_9_IdentityIjEESt4lessIjEE8iteratorneERKS6_(%"class.klee::ImmutableTree<unsigned int, unsigned int, klee::_Identity<unsigned int>, std::less<unsigned int> >::iterator"* %it4, %"class.klee::Immut
  br i1 %63, label %.lr.ph5, label %._crit_edge6, !dbg !1029

._crit_edge3:                                     ; preds = %70, %._crit_edge6
  call fastcc void @_ZN4klee13ImmutableTreeIjjNS_9_IdentityIjEESt4lessIjEE8iteratorD2Ev(%"class.klee::ImmutableTree<unsigned int, unsigned int, klee::_Identity<unsigned int>, std::less<unsigned int> >::iterator"* %it6), !dbg !1033
  call fastcc void @_ZN4klee13ImmutableTreeIjjNS_9_IdentityIjEESt4lessIjEE8iteratorC2ERKS6_(%"class.klee::ImmutableTree<unsigned int, unsigned int, klee::_Identity<unsigned int>, std::less<unsigned int> >::iterator"* %it7, %"class.klee::ImmutableTree<uns
  call fastcc void @_ZNK4klee12ImmutableSetIjSt4lessIjEE3endEv(%"class.klee::ImmutableTree<unsigned int, unsigned int, klee::_Identity<unsigned int>, std::less<unsigned int> >::iterator"* sret %ie8, %"class.klee::ImmutableSet"* %set), !dbg !1036
  %64 = call fastcc zeroext i1 @_ZN4klee13ImmutableTreeIjjNS_9_IdentityIjEESt4lessIjEE8iteratorneERKS6_(%"class.klee::ImmutableTree<unsigned int, unsigned int, klee::_Identity<unsigned int>, std::less<unsigned int> >::iterator"* %it7, %"class.klee::Immut
  br i1 %64, label %.lr.ph, label %._crit_edge, !dbg !1036

.lr.ph2:                                          ; preds = %._crit_edge6, %70
  %65 = call fastcc i32* @_ZN4klee13ImmutableTreeIjjNS_9_IdentityIjEESt4lessIjEE8iteratordeEv(%"class.klee::ImmutableTree<unsigned int, unsigned int, klee::_Identity<unsigned int>, std::less<unsigned int> >::iterator"* %it6), !dbg !1038
  %66 = load i32* %65, align 4, !dbg !1038
  %67 = load i32* %item2, align 4, !dbg !1038
  %68 = icmp ugt i32 %66, %67, !dbg !1038
  br i1 %68, label %69, label %70, !dbg !1038

; <label>:69                                      ; preds = %.lr.ph2
  call void @__assert_fail(i8* getelementptr inbounds ([13 x i8]* @.str12, i64 0, i64 0), i8* getelementptr inbounds ([59 x i8]* @.str1, i64 0, i64 0), i32 81, i8* getelementptr inbounds ([50 x i8]* @__PRETTY_FUNCTION__._Z9check_setRN4klee12ImmutableSetI
  unreachable, !dbg !1038

; <label>:70                                      ; preds = %.lr.ph2
  call fastcc void @_ZN4klee13ImmutableTreeIjjNS_9_IdentityIjEESt4lessIjEE8iteratorppEv(%"class.klee::ImmutableTree<unsigned int, unsigned int, klee::_Identity<unsigned int>, std::less<unsigned int> >::iterator"* %it6), !dbg !1033
  %71 = call fastcc zeroext i1 @_ZN4klee13ImmutableTreeIjjNS_9_IdentityIjEESt4lessIjEE8iteratorneERKS6_(%"class.klee::ImmutableTree<unsigned int, unsigned int, klee::_Identity<unsigned int>, std::less<unsigned int> >::iterator"* %it6, %"class.klee::Immut
  br i1 %71, label %.lr.ph2, label %._crit_edge3, !dbg !1033

._crit_edge:                                      ; preds = %77, %._crit_edge3
  call fastcc void @_ZN4klee13ImmutableTreeIjjNS_9_IdentityIjEESt4lessIjEE8iteratorD2Ev(%"class.klee::ImmutableTree<unsigned int, unsigned int, klee::_Identity<unsigned int>, std::less<unsigned int> >::iterator"* %ie8), !dbg !1036
  call fastcc void @_ZN4klee13ImmutableTreeIjjNS_9_IdentityIjEESt4lessIjEE8iteratorD2Ev(%"class.klee::ImmutableTree<unsigned int, unsigned int, klee::_Identity<unsigned int>, std::less<unsigned int> >::iterator"* %it7), !dbg !1036
  call fastcc void @_ZN4klee13ImmutableTreeIjjNS_9_IdentityIjEESt4lessIjEE8iteratorD2Ev(%"class.klee::ImmutableTree<unsigned int, unsigned int, klee::_Identity<unsigned int>, std::less<unsigned int> >::iterator"* %ub5), !dbg !1039
  call fastcc void @_ZN4klee13ImmutableTreeIjjNS_9_IdentityIjEESt4lessIjEE8iteratorD2Ev(%"class.klee::ImmutableTree<unsigned int, unsigned int, klee::_Identity<unsigned int>, std::less<unsigned int> >::iterator"* %lb2), !dbg !1039
  br label %79, !dbg !1039

.lr.ph:                                           ; preds = %._crit_edge3, %77
  %72 = call fastcc i32* @_ZN4klee13ImmutableTreeIjjNS_9_IdentityIjEESt4lessIjEE8iteratordeEv(%"class.klee::ImmutableTree<unsigned int, unsigned int, klee::_Identity<unsigned int>, std::less<unsigned int> >::iterator"* %it7), !dbg !1040
  %73 = load i32* %72, align 4, !dbg !1040
  %74 = load i32* %item2, align 4, !dbg !1040
  %75 = icmp ugt i32 %73, %74, !dbg !1040
  br i1 %75, label %77, label %76, !dbg !1040

; <label>:76                                      ; preds = %.lr.ph
  call void @__assert_fail(i8* getelementptr inbounds ([12 x i8]* @.str13, i64 0, i64 0), i8* getelementptr inbounds ([59 x i8]* @.str1, i64 0, i64 0), i32 83, i8* getelementptr inbounds ([50 x i8]* @__PRETTY_FUNCTION__._Z9check_setRN4klee12ImmutableSetI
  unreachable, !dbg !1040

; <label>:77                                      ; preds = %.lr.ph
  call fastcc void @_ZN4klee13ImmutableTreeIjjNS_9_IdentityIjEESt4lessIjEE8iteratorppEv(%"class.klee::ImmutableTree<unsigned int, unsigned int, klee::_Identity<unsigned int>, std::less<unsigned int> >::iterator"* %it7), !dbg !1036
  %78 = call fastcc zeroext i1 @_ZN4klee13ImmutableTreeIjjNS_9_IdentityIjEESt4lessIjEE8iteratorneERKS6_(%"class.klee::ImmutableTree<unsigned int, unsigned int, klee::_Identity<unsigned int>, std::less<unsigned int> >::iterator"* %it7, %"class.klee::Immut
  br i1 %78, label %.lr.ph, label %._crit_edge, !dbg !1036

; <label>:79                                      ; preds = %._crit_edge12, %._crit_edge
  ret void, !dbg !1041
}

; Function Attrs: nounwind uwtable
define internal fastcc i64 @_ZN4klee12ImmutableSetIjSt4lessIjEE4sizeEv(%"class.klee::ImmutableSet"* nocapture readonly %this) #1 align 2 {
  %.idx = getelementptr %"class.klee::ImmutableSet"* %this, i64 0, i32 0, i32 0
  %.idx.val = load %"class.klee::ImmutableTree<unsigned int, unsigned int, klee::_Identity<unsigned int>, std::less<unsigned int> >::Node"** %.idx, align 8
  %1 = tail call fastcc i64 @_ZNK4klee13ImmutableTreeIjjNS_9_IdentityIjEESt4lessIjEE4sizeEv(%"class.klee::ImmutableTree<unsigned int, unsigned int, klee::_Identity<unsigned int>, std::less<unsigned int> >::Node"* %.idx.val)
  ret i64 %1, !dbg !1042
}

; Function Attrs: noreturn nounwind
declare void @__assert_fail(i8*, i8*, i32, i8*) #2

; Function Attrs: nounwind readonly uwtable
define internal fastcc zeroext i1 @_Z8containsIPjjEbT_S1_T0_(i32* readonly %begin, i32* readnone %end, i32 %item) #3 {
  %1 = icmp eq i32* %begin, %end, !dbg !1044
  br i1 %1, label %split3, label %.lr.ph, !dbg !1044

; <label>:2                                       ; preds = %.lr.ph
  %3 = icmp eq i32* %6, %end, !dbg !1044
  br i1 %3, label %split3, label %.lr.ph, !dbg !1044

.lr.ph:                                           ; preds = %0, %2
  %.012 = phi i32* [ %6, %2 ], [ %begin, %0 ]
  %4 = load i32* %.012, align 4, !dbg !1047
  %5 = icmp eq i32 %4, %item, !dbg !1047
  %6 = getelementptr inbounds i32* %.012, i64 1, !dbg !1044
  br i1 %5, label %split3, label %2, !dbg !1047

split3:                                           ; preds = %2, %.lr.ph, %0
  %.0 = phi i1 [ false, %0 ], [ false, %2 ], [ true, %.lr.ph ]
  ret i1 %.0, !dbg !1049
}

; Function Attrs: nounwind uwtable
define internal fastcc i64 @_ZNK4klee12ImmutableSetIjSt4lessIjEE5countERKj(%"class.klee::ImmutableSet"* nocapture readonly %this, i32* nocapture readonly %key) #1 align 2 {
  %.idx = getelementptr %"class.klee::ImmutableSet"* %this, i64 0, i32 0, i32 0
  %.idx.val = load %"class.klee::ImmutableTree<unsigned int, unsigned int, klee::_Identity<unsigned int>, std::less<unsigned int> >::Node"** %.idx, align 8
  %1 = tail call fastcc i64 @_ZNK4klee13ImmutableTreeIjjNS_9_IdentityIjEESt4lessIjEE5countERKj(%"class.klee::ImmutableTree<unsigned int, unsigned int, klee::_Identity<unsigned int>, std::less<unsigned int> >::Node"* %.idx.val, i32* %key)
  ret i64 %1, !dbg !1050
}

; Function Attrs: nounwind uwtable
define internal fastcc void @_ZNK4klee12ImmutableSetIjSt4lessIjEE4findERKj(%"class.klee::ImmutableTree<unsigned int, unsigned int, klee::_Identity<unsigned int>, std::less<unsigned int> >::iterator"* noalias nocapture sret %agg.result, %"class.klee::Immu
  %1 = getelementptr inbounds %"class.klee::ImmutableSet"* %this, i64 0, i32 0, !dbg !1052
  tail call fastcc void @_ZNK4klee13ImmutableTreeIjjNS_9_IdentityIjEESt4lessIjEE4findERKj(%"class.klee::ImmutableTree<unsigned int, unsigned int, klee::_Identity<unsigned int>, std::less<unsigned int> >::iterator"* sret %agg.result, %"class.klee::Immutab
  ret void, !dbg !1052
}

; Function Attrs: nounwind uwtable
define internal fastcc void @_ZNK4klee12ImmutableSetIjSt4lessIjEE11lower_boundERKj(%"class.klee::ImmutableTree<unsigned int, unsigned int, klee::_Identity<unsigned int>, std::less<unsigned int> >::iterator"* noalias nocapture sret %agg.result, %"class.kl
  %1 = getelementptr inbounds %"class.klee::ImmutableSet"* %this, i64 0, i32 0, !dbg !1053
  tail call fastcc void @_ZNK4klee13ImmutableTreeIjjNS_9_IdentityIjEESt4lessIjEE11lower_boundERKj(%"class.klee::ImmutableTree<unsigned int, unsigned int, klee::_Identity<unsigned int>, std::less<unsigned int> >::iterator"* sret %agg.result, %"class.klee:
  ret void, !dbg !1053
}

; Function Attrs: nounwind uwtable
define internal fastcc void @_ZNK4klee12ImmutableSetIjSt4lessIjEE11upper_boundERKj(%"class.klee::ImmutableTree<unsigned int, unsigned int, klee::_Identity<unsigned int>, std::less<unsigned int> >::iterator"* noalias nocapture sret %agg.result, %"class.kl
  %1 = getelementptr inbounds %"class.klee::ImmutableSet"* %this, i64 0, i32 0, !dbg !1055
  tail call fastcc void @_ZNK4klee13ImmutableTreeIjjNS_9_IdentityIjEESt4lessIjEE11upper_boundERKj(%"class.klee::ImmutableTree<unsigned int, unsigned int, klee::_Identity<unsigned int>, std::less<unsigned int> >::iterator"* sret %agg.result, %"class.klee:
  ret void, !dbg !1055
}

; Function Attrs: nounwind uwtable
define internal fastcc zeroext i1 @_ZN4klee13ImmutableTreeIjjNS_9_IdentityIjEESt4lessIjEE8iteratoreqERKS6_(%"class.klee::ImmutableTree<unsigned int, unsigned int, klee::_Identity<unsigned int>, std::less<unsigned int> >::iterator"* nocapture readonly %th
  %1 = getelementptr inbounds %"class.klee::ImmutableTree<unsigned int, unsigned int, klee::_Identity<unsigned int>, std::less<unsigned int> >::iterator"* %this, i64 0, i32 1, !dbg !1057
  %2 = getelementptr inbounds %"class.klee::ImmutableTree<unsigned int, unsigned int, klee::_Identity<unsigned int>, std::less<unsigned int> >::iterator"* %b, i64 0, i32 1, !dbg !1057
  %3 = tail call fastcc zeroext i1 @_ZN4klee10FixedStackIPNS_13ImmutableTreeIjjNS_9_IdentityIjEESt4lessIjEE4NodeEEeqERKS9_(%"class.klee::FixedStack"* %1, %"class.klee::FixedStack"* %2), !dbg !1057
  ret i1 %3, !dbg !1057
}

; Function Attrs: nounwind uwtable
define internal fastcc void @_ZN4klee13ImmutableTreeIjjNS_9_IdentityIjEESt4lessIjEE8iteratormmEv(%"class.klee::ImmutableTree<unsigned int, unsigned int, klee::_Identity<unsigned int>, std::less<unsigned int> >::iterator"* nocapture %this) #1 align 2 {
  %1 = getelementptr inbounds %"class.klee::ImmutableTree<unsigned int, unsigned int, klee::_Identity<unsigned int>, std::less<unsigned int> >::iterator"* %this, i64 0, i32 1, !dbg !1058
  %.idx1 = getelementptr %"class.klee::FixedStack"* %1, i64 0, i32 0
  %.idx1.val = load i32* %.idx1, align 4
  %2 = tail call fastcc zeroext i1 @_ZN4klee10FixedStackIPNS_13ImmutableTreeIjjNS_9_IdentityIjEESt4lessIjEE4NodeEE5emptyEv(i32 %.idx1.val)
  br i1 %2, label %3, label %8, !dbg !1058

; <label>:3                                       ; preds = %0
  %4 = getelementptr inbounds %"class.klee::ImmutableTree<unsigned int, unsigned int, klee::_Identity<unsigned int>, std::less<unsigned int> >::iterator"* %this, i64 0, i32 0, !dbg !1060
  %storemerge12 = load %"class.klee::ImmutableTree<unsigned int, unsigned int, klee::_Identity<unsigned int>, std::less<unsigned int> >::Node"** %4, align 8, !dbg !1060
  %5 = tail call fastcc zeroext i1 @_ZN4klee13ImmutableTreeIjjNS_9_IdentityIjEESt4lessIjEE4Node12isTerminatorEv(%"class.klee::ImmutableTree<unsigned int, unsigned int, klee::_Identity<unsigned int>, std::less<unsigned int> >::Node"* %storemerge12), !dbg 
  br i1 %5, label %.loopexit, label %.lr.ph, !dbg !1060

.lr.ph:                                           ; preds = %3, %.lr.ph
  %n.0 = phi %"class.klee::ImmutableTree<unsigned int, unsigned int, klee::_Identity<unsigned int>, std::less<unsigned int> >::Node"* [ %storemerge1, %.lr.ph ], [ %storemerge12, %3 ]
  call fastcc void @_ZN4klee10FixedStackIPNS_13ImmutableTreeIjjNS_9_IdentityIjEESt4lessIjEE4NodeEE9push_backERKS8_(%"class.klee::FixedStack"* %1, %"class.klee::ImmutableTree<unsigned int, unsigned int, klee::_Identity<unsigned int>, std::less<unsigned in
  %6 = getelementptr inbounds %"class.klee::ImmutableTree<unsigned int, unsigned int, klee::_Identity<unsigned int>, std::less<unsigned int> >::Node"* %n.0, i64 0, i32 1, !dbg !1060
  %storemerge1 = load %"class.klee::ImmutableTree<unsigned int, unsigned int, klee::_Identity<unsigned int>, std::less<unsigned int> >::Node"** %6, align 8, !dbg !1060
  %7 = tail call fastcc zeroext i1 @_ZN4klee13ImmutableTreeIjjNS_9_IdentityIjEESt4lessIjEE4Node12isTerminatorEv(%"class.klee::ImmutableTree<unsigned int, unsigned int, klee::_Identity<unsigned int>, std::less<unsigned int> >::Node"* %storemerge1), !dbg !
  br i1 %7, label %.loopexit, label %.lr.ph, !dbg !1060

; <label>:8                                       ; preds = %0
  %.idx4.val = load i32* %.idx1, align 4
  %.idx5 = getelementptr %"class.klee::ImmutableTree<unsigned int, unsigned int, klee::_Identity<unsigned int>, std::less<unsigned int> >::iterator"* %this, i64 0, i32 1, i32 2
  %.idx5.val = load %"class.klee::ImmutableTree<unsigned int, unsigned int, klee::_Identity<unsigned int>, std::less<unsigned int> >::Node"*** %.idx5, align 8
  %9 = tail call fastcc %"class.klee::ImmutableTree<unsigned int, unsigned int, klee::_Identity<unsigned int>, std::less<unsigned int> >::Node"** @_ZN4klee10FixedStackIPNS_13ImmutableTreeIjjNS_9_IdentityIjEESt4lessIjEE4NodeEE4backEv(i32 %.idx4.val, %"cla
  %10 = load %"class.klee::ImmutableTree<unsigned int, unsigned int, klee::_Identity<unsigned int>, std::less<unsigned int> >::Node"** %9, align 8, !dbg !1063
  %11 = getelementptr inbounds %"class.klee::ImmutableTree<unsigned int, unsigned int, klee::_Identity<unsigned int>, std::less<unsigned int> >::Node"* %10, i64 0, i32 0, !dbg !1065
  %12 = load %"class.klee::ImmutableTree<unsigned int, unsigned int, klee::_Identity<unsigned int>, std::less<unsigned int> >::Node"** %11, align 8, !dbg !1065
  %13 = tail call fastcc zeroext i1 @_ZN4klee13ImmutableTreeIjjNS_9_IdentityIjEESt4lessIjEE4Node12isTerminatorEv(%"class.klee::ImmutableTree<unsigned int, unsigned int, klee::_Identity<unsigned int>, std::less<unsigned int> >::Node"* %12), !dbg !1065
  br i1 %13, label %.preheader, label %22, !dbg !1065

.preheader:                                       ; preds = %8, %16
  %14 = phi %"class.klee::ImmutableTree<unsigned int, unsigned int, klee::_Identity<unsigned int>, std::less<unsigned int> >::Node"* [ %18, %16 ], [ %10, %8 ]
  tail call fastcc void @_ZN4klee10FixedStackIPNS_13ImmutableTreeIjjNS_9_IdentityIjEESt4lessIjEE4NodeEE8pop_backEv(%"class.klee::FixedStack"* %1), !dbg !1067
  %.idx.val = load i32* %.idx1, align 4
  %15 = tail call fastcc zeroext i1 @_ZN4klee10FixedStackIPNS_13ImmutableTreeIjjNS_9_IdentityIjEESt4lessIjEE4NodeEE5emptyEv(i32 %.idx.val)
  br i1 %15, label %.loopexit, label %16, !dbg !1071

; <label>:16                                      ; preds = %.preheader
  %.idx2.val = load i32* %.idx1, align 4
  %.idx3.val = load %"class.klee::ImmutableTree<unsigned int, unsigned int, klee::_Identity<unsigned int>, std::less<unsigned int> >::Node"*** %.idx5, align 8
  %17 = tail call fastcc %"class.klee::ImmutableTree<unsigned int, unsigned int, klee::_Identity<unsigned int>, std::less<unsigned int> >::Node"** @_ZN4klee10FixedStackIPNS_13ImmutableTreeIjjNS_9_IdentityIjEESt4lessIjEE4NodeEE4backEv(i32 %.idx2.val, %"cl
  %18 = load %"class.klee::ImmutableTree<unsigned int, unsigned int, klee::_Identity<unsigned int>, std::less<unsigned int> >::Node"** %17, align 8, !dbg !1073
  %19 = getelementptr inbounds %"class.klee::ImmutableTree<unsigned int, unsigned int, klee::_Identity<unsigned int>, std::less<unsigned int> >::Node"* %18, i64 0, i32 1, !dbg !1075
  %20 = load %"class.klee::ImmutableTree<unsigned int, unsigned int, klee::_Identity<unsigned int>, std::less<unsigned int> >::Node"** %19, align 8, !dbg !1075
  %21 = icmp eq %"class.klee::ImmutableTree<unsigned int, unsigned int, klee::_Identity<unsigned int>, std::less<unsigned int> >::Node"* %14, %20, !dbg !1075
  br i1 %21, label %.loopexit, label %.preheader, !dbg !1075

; <label>:22                                      ; preds = %8
  %.val = load %"class.klee::ImmutableTree<unsigned int, unsigned int, klee::_Identity<unsigned int>, std::less<unsigned int> >::Node"** %11, align 8
  tail call fastcc void @_ZN4klee10FixedStackIPNS_13ImmutableTreeIjjNS_9_IdentityIjEESt4lessIjEE4NodeEE9push_backERKS8_(%"class.klee::FixedStack"* %1, %"class.klee::ImmutableTree<unsigned int, unsigned int, klee::_Identity<unsigned int>, std::less<unsign
  %.pn5 = load %"class.klee::ImmutableTree<unsigned int, unsigned int, klee::_Identity<unsigned int>, std::less<unsigned int> >::Node"** %11, align 8, !dbg !1077
  %storemerge.in6 = getelementptr inbounds %"class.klee::ImmutableTree<unsigned int, unsigned int, klee::_Identity<unsigned int>, std::less<unsigned int> >::Node"* %.pn5, i64 0, i32 1, !dbg !1077
  %storemerge7 = load %"class.klee::ImmutableTree<unsigned int, unsigned int, klee::_Identity<unsigned int>, std::less<unsigned int> >::Node"** %storemerge.in6, align 8, !dbg !1077
  %23 = tail call fastcc zeroext i1 @_ZN4klee13ImmutableTreeIjjNS_9_IdentityIjEESt4lessIjEE4Node12isTerminatorEv(%"class.klee::ImmutableTree<unsigned int, unsigned int, klee::_Identity<unsigned int>, std::less<unsigned int> >::Node"* %storemerge7), !dbg 
  br i1 %23, label %.loopexit, label %.lr.ph8, !dbg !1077

.lr.ph8:                                          ; preds = %22, %.lr.ph8
  %n1.0 = phi %"class.klee::ImmutableTree<unsigned int, unsigned int, klee::_Identity<unsigned int>, std::less<unsigned int> >::Node"* [ %storemerge, %.lr.ph8 ], [ %storemerge7, %22 ]
  call fastcc void @_ZN4klee10FixedStackIPNS_13ImmutableTreeIjjNS_9_IdentityIjEESt4lessIjEE4NodeEE9push_backERKS8_(%"class.klee::FixedStack"* %1, %"class.klee::ImmutableTree<unsigned int, unsigned int, klee::_Identity<unsigned int>, std::less<unsigned in
  %storemerge.in = getelementptr inbounds %"class.klee::ImmutableTree<unsigned int, unsigned int, klee::_Identity<unsigned int>, std::less<unsigned int> >::Node"* %n1.0, i64 0, i32 1, !dbg !1077
  %storemerge = load %"class.klee::ImmutableTree<unsigned int, unsigned int, klee::_Identity<unsigned int>, std::less<unsigned int> >::Node"** %storemerge.in, align 8, !dbg !1077
  %24 = tail call fastcc zeroext i1 @_ZN4klee13ImmutableTreeIjjNS_9_IdentityIjEESt4lessIjEE4Node12isTerminatorEv(%"class.klee::ImmutableTree<unsigned int, unsigned int, klee::_Identity<unsigned int>, std::less<unsigned int> >::Node"* %storemerge), !dbg !
  br i1 %24, label %.loopexit, label %.lr.ph8, !dbg !1077

.loopexit:                                        ; preds = %.lr.ph8, %16, %.preheader, %.lr.ph, %22, %3
  ret void
}

; Function Attrs: nounwind uwtable
define internal fastcc void @_ZN4klee13ImmutableTreeIjjNS_9_IdentityIjEESt4lessIjEE8iteratorC2ERKS6_(%"class.klee::ImmutableTree<unsigned int, unsigned int, klee::_Identity<unsigned int>, std::less<unsigned int> >::iterator"* nocapture %this, %"class.kle
  %1 = getelementptr inbounds %"class.klee::ImmutableTree<unsigned int, unsigned int, klee::_Identity<unsigned int>, std::less<unsigned int> >::iterator"* %this, i64 0, i32 0, !dbg !1080
  %2 = getelementptr inbounds %"class.klee::ImmutableTree<unsigned int, unsigned int, klee::_Identity<unsigned int>, std::less<unsigned int> >::iterator"* %i, i64 0, i32 0, !dbg !1081
  %3 = load %"class.klee::ImmutableTree<unsigned int, unsigned int, klee::_Identity<unsigned int>, std::less<unsigned int> >::Node"** %2, align 8, !dbg !1081
  tail call fastcc void @_ZN4klee13ImmutableTreeIjjNS_9_IdentityIjEESt4lessIjEE4Node6increfEv(%"class.klee::ImmutableTree<unsigned int, unsigned int, klee::_Identity<unsigned int>, std::less<unsigned int> >::Node"* %3), !dbg !1081
  store %"class.klee::ImmutableTree<unsigned int, unsigned int, klee::_Identity<unsigned int>, std::less<unsigned int> >::Node"* %3, %"class.klee::ImmutableTree<unsigned int, unsigned int, klee::_Identity<unsigned int>, std::less<unsigned int> >::Node"**
  %4 = getelementptr inbounds %"class.klee::ImmutableTree<unsigned int, unsigned int, klee::_Identity<unsigned int>, std::less<unsigned int> >::iterator"* %this, i64 0, i32 1, !dbg !1081
  %5 = getelementptr inbounds %"class.klee::ImmutableTree<unsigned int, unsigned int, klee::_Identity<unsigned int>, std::less<unsigned int> >::iterator"* %i, i64 0, i32 1, !dbg !1081
  tail call fastcc void @_ZN4klee10FixedStackIPNS_13ImmutableTreeIjjNS_9_IdentityIjEESt4lessIjEE4NodeEEC2ERKS9_(%"class.klee::FixedStack"* %4, %"class.klee::FixedStack"* %5), !dbg !1081
  ret void, !dbg !1082
}

; Function Attrs: nounwind uwtable
define internal fastcc void @_Z4testv() #1 {
  %values = alloca [4 x i32], align 16
  %set = alloca %"class.klee::ImmutableSet", align 8
  %item = alloca i32, align 4
  %1 = alloca %"class.klee::ImmutableSet", align 8
  %item1 = alloca i32, align 4
  %set2 = alloca %"class.klee::ImmutableSet", align 8
  %set3 = alloca %"class.klee::ImmutableSet", align 8
  %set22 = alloca %"class.klee::ImmutableSet", align 8
  %set33 = alloca %"class.klee::ImmutableSet", align 8
  call fastcc void @_ZN4klee12ImmutableSetIjSt4lessIjEEC2Ev(%"class.klee::ImmutableSet"* %set), !dbg !1083
  %2 = call i32 @klee_range(i32 0, i32 5, i8* getelementptr inbounds ([6 x i8]* @.str2, i64 0, i64 0)) #5, !dbg !1084
  %3 = icmp eq i32 %2, 0, !dbg !1084
  %.pre = getelementptr inbounds [4 x i32]* %values, i64 0, i64 0, !dbg !1086
  br i1 %3, label %._crit_edge4, label %.lr.ph, !dbg !1084

.lr.ph:                                           ; preds = %0, %9
  %num.03 = phi i32 [ %11, %9 ], [ 0, %0 ]
  %4 = call i32 @klee_range(i32 0, i32 256, i8* getelementptr inbounds ([6 x i8]* @.str2, i64 0, i64 0)) #5, !dbg !1087
  store i32 %4, i32* %item, align 4, !dbg !1087
  %5 = zext i32 %num.03 to i64, !dbg !1089
  %6 = getelementptr inbounds [4 x i32]* %values, i64 0, i64 %5, !dbg !1089
  %7 = call fastcc zeroext i1 @_Z8containsIPjjEbT_S1_T0_(i32* %.pre, i32* %6, i32 %4), !dbg !1089
  br i1 %7, label %8, label %9, !dbg !1089

; <label>:8                                       ; preds = %.lr.ph
  call void @klee_silent_exit(i32 0) #16, !dbg !1091
  unreachable, !dbg !1091

; <label>:9                                       ; preds = %.lr.ph
  call fastcc void @_ZNK4klee12ImmutableSetIjSt4lessIjEE6insertERKj(%"class.klee::ImmutableSet"* sret %1, %"class.klee::ImmutableSet"* %set, i32* %item), !dbg !1092
  call fastcc void @_ZN4klee12ImmutableSetIjSt4lessIjEEaSERKS3_(%"class.klee::ImmutableSet"* %set, %"class.klee::ImmutableSet"* %1), !dbg !1092
  call fastcc void @_ZN4klee12ImmutableSetIjSt4lessIjEED2Ev(%"class.klee::ImmutableSet"* %1), !dbg !1092
  %10 = load i32* %item, align 4, !dbg !1093
  %11 = add i32 %num.03, 1, !dbg !1093
  store i32 %10, i32* %6, align 4, !dbg !1093
  %12 = call i32 @klee_range(i32 0, i32 5, i8* getelementptr inbounds ([6 x i8]* @.str2, i64 0, i64 0)) #5, !dbg !1084
  %13 = icmp ult i32 %11, %12, !dbg !1084
  br i1 %13, label %.lr.ph, label %._crit_edge4, !dbg !1084

._crit_edge4:                                     ; preds = %9, %0
  %num.0.lcssa = phi i32 [ 0, %0 ], [ %11, %9 ]
  call fastcc void @_Z9check_setRN4klee12ImmutableSetIjSt4lessIjEEEjPj(%"class.klee::ImmutableSet"* %set, i32 %num.0.lcssa, i32* %.pre), !dbg !1086
  %14 = call i32 @klee_range(i32 0, i32 256, i8* getelementptr inbounds ([6 x i8]* @.str2, i64 0, i64 0)) #5, !dbg !1094
  store i32 %14, i32* %item1, align 4, !dbg !1094
  %15 = zext i32 %num.0.lcssa to i64, !dbg !1095
  %16 = getelementptr inbounds [4 x i32]* %values, i64 0, i64 %15, !dbg !1095
  %17 = call fastcc zeroext i1 @_Z8containsIPjjEbT_S1_T0_(i32* %.pre, i32* %16, i32 %14), !dbg !1095
  br i1 %17, label %18, label %35, !dbg !1095

; <label>:18                                      ; preds = %._crit_edge4
  call fastcc void @_ZNK4klee12ImmutableSetIjSt4lessIjEE6insertERKj(%"class.klee::ImmutableSet"* sret %set2, %"class.klee::ImmutableSet"* %set, i32* %item1), !dbg !1097
  %19 = call fastcc zeroext i1 @_Z5equalRN4klee12ImmutableSetIjSt4lessIjEEES4_(%"class.klee::ImmutableSet"* %set2, %"class.klee::ImmutableSet"* %set), !dbg !1099
  br i1 %19, label %21, label %20, !dbg !1099

; <label>:20                                      ; preds = %18
  call void @__assert_fail(i8* getelementptr inbounds ([17 x i8]* @.str14, i64 0, i64 0), i8* getelementptr inbounds ([59 x i8]* @.str1, i64 0, i64 0), i32 111, i8* getelementptr inbounds ([12 x i8]* @__PRETTY_FUNCTION__._Z4testv, i64 0, i64 0)) #16, !db
  unreachable, !dbg !1099

; <label>:21                                      ; preds = %18
  call fastcc void @_ZNK4klee12ImmutableSetIjSt4lessIjEE6removeERKj(%"class.klee::ImmutableSet"* sret %set3, %"class.klee::ImmutableSet"* %set, i32* %item1), !dbg !1100
  %22 = call fastcc zeroext i1 @_Z5equalRN4klee12ImmutableSetIjSt4lessIjEEES4_(%"class.klee::ImmutableSet"* %set3, %"class.klee::ImmutableSet"* %set), !dbg !1101
  br i1 %22, label %23, label %24, !dbg !1101

; <label>:23                                      ; preds = %21
  call void @__assert_fail(i8* getelementptr inbounds ([18 x i8]* @.str15, i64 0, i64 0), i8* getelementptr inbounds ([59 x i8]* @.str1, i64 0, i64 0), i32 115, i8* getelementptr inbounds ([12 x i8]* @__PRETTY_FUNCTION__._Z4testv, i64 0, i64 0)) #16, !db
  unreachable, !dbg !1101

; <label>:24                                      ; preds = %21
  %25 = call fastcc i64 @_ZN4klee12ImmutableSetIjSt4lessIjEE4sizeEv(%"class.klee::ImmutableSet"* %set3), !dbg !1102
  %26 = add i64 %25, 1, !dbg !1102
  %27 = call fastcc i64 @_ZN4klee12ImmutableSetIjSt4lessIjEE4sizeEv(%"class.klee::ImmutableSet"* %set), !dbg !1102
  %28 = icmp eq i64 %26, %27, !dbg !1102
  br i1 %28, label %30, label %29, !dbg !1102

; <label>:29                                      ; preds = %24
  call void @__assert_fail(i8* getelementptr inbounds ([30 x i8]* @.str16, i64 0, i64 0), i8* getelementptr inbounds ([59 x i8]* @.str1, i64 0, i64 0), i32 116, i8* getelementptr inbounds ([12 x i8]* @__PRETTY_FUNCTION__._Z4testv, i64 0, i64 0)) #16, !db
  unreachable, !dbg !1102

; <label>:30                                      ; preds = %24
  %31 = call fastcc i64 @_ZNK4klee12ImmutableSetIjSt4lessIjEE5countERKj(%"class.klee::ImmutableSet"* %set3, i32* %item1), !dbg !1103
  %32 = icmp eq i64 %31, 0, !dbg !1103
  br i1 %32, label %34, label %33, !dbg !1103

; <label>:33                                      ; preds = %30
  call void @__assert_fail(i8* getelementptr inbounds ([18 x i8]* @.str17, i64 0, i64 0), i8* getelementptr inbounds ([59 x i8]* @.str1, i64 0, i64 0), i32 117, i8* getelementptr inbounds ([12 x i8]* @__PRETTY_FUNCTION__._Z4testv, i64 0, i64 0)) #16, !db
  unreachable, !dbg !1103

; <label>:34                                      ; preds = %30
  call fastcc void @_ZN4klee12ImmutableSetIjSt4lessIjEED2Ev(%"class.klee::ImmutableSet"* %set3), !dbg !1104
  call fastcc void @_ZN4klee12ImmutableSetIjSt4lessIjEED2Ev(%"class.klee::ImmutableSet"* %set2), !dbg !1104
  br label %52, !dbg !1104

; <label>:35                                      ; preds = %._crit_edge4
  call fastcc void @_ZNK4klee12ImmutableSetIjSt4lessIjEE6removeERKj(%"class.klee::ImmutableSet"* sret %set22, %"class.klee::ImmutableSet"* %set, i32* %item1), !dbg !1105
  %36 = call fastcc zeroext i1 @_Z5equalRN4klee12ImmutableSetIjSt4lessIjEEES4_(%"class.klee::ImmutableSet"* %set22, %"class.klee::ImmutableSet"* %set), !dbg !1107
  br i1 %36, label %38, label %37, !dbg !1107

; <label>:37                                      ; preds = %35
  call void @__assert_fail(i8* getelementptr inbounds ([17 x i8]* @.str14, i64 0, i64 0), i8* getelementptr inbounds ([59 x i8]* @.str1, i64 0, i64 0), i32 121, i8* getelementptr inbounds ([12 x i8]* @__PRETTY_FUNCTION__._Z4testv, i64 0, i64 0)) #16, !db
  unreachable, !dbg !1107

; <label>:38                                      ; preds = %35
  call fastcc void @_ZNK4klee12ImmutableSetIjSt4lessIjEE6insertERKj(%"class.klee::ImmutableSet"* sret %set33, %"class.klee::ImmutableSet"* %set, i32* %item1), !dbg !1108
  %39 = call fastcc zeroext i1 @_Z5equalRN4klee12ImmutableSetIjSt4lessIjEEES4_(%"class.klee::ImmutableSet"* %set33, %"class.klee::ImmutableSet"* %set), !dbg !1109
  br i1 %39, label %40, label %41, !dbg !1109

; <label>:40                                      ; preds = %38
  call void @__assert_fail(i8* getelementptr inbounds ([18 x i8]* @.str15, i64 0, i64 0), i8* getelementptr inbounds ([59 x i8]* @.str1, i64 0, i64 0), i32 125, i8* getelementptr inbounds ([12 x i8]* @__PRETTY_FUNCTION__._Z4testv, i64 0, i64 0)) #16, !db
  unreachable, !dbg !1109

; <label>:41                                      ; preds = %38
  %42 = call fastcc i64 @_ZN4klee12ImmutableSetIjSt4lessIjEE4sizeEv(%"class.klee::ImmutableSet"* %set33), !dbg !1110
  %43 = call fastcc i64 @_ZN4klee12ImmutableSetIjSt4lessIjEE4sizeEv(%"class.klee::ImmutableSet"* %set), !dbg !1110
  %44 = add i64 %43, 1, !dbg !1110
  %45 = icmp eq i64 %42, %44, !dbg !1110
  br i1 %45, label %47, label %46, !dbg !1110

; <label>:46                                      ; preds = %41
  call void @__assert_fail(i8* getelementptr inbounds ([30 x i8]* @.str18, i64 0, i64 0), i8* getelementptr inbounds ([59 x i8]* @.str1, i64 0, i64 0), i32 126, i8* getelementptr inbounds ([12 x i8]* @__PRETTY_FUNCTION__._Z4testv, i64 0, i64 0)) #16, !db
  unreachable, !dbg !1110

; <label>:47                                      ; preds = %41
  %48 = call fastcc i64 @_ZNK4klee12ImmutableSetIjSt4lessIjEE5countERKj(%"class.klee::ImmutableSet"* %set33, i32* %item1), !dbg !1111
  %49 = icmp eq i64 %48, 0, !dbg !1111
  br i1 %49, label %50, label %51, !dbg !1111

; <label>:50                                      ; preds = %47
  call void @__assert_fail(i8* getelementptr inbounds ([17 x i8]* @.str19, i64 0, i64 0), i8* getelementptr inbounds ([59 x i8]* @.str1, i64 0, i64 0), i32 127, i8* getelementptr inbounds ([12 x i8]* @__PRETTY_FUNCTION__._Z4testv, i64 0, i64 0)) #16, !db
  unreachable, !dbg !1111

; <label>:51                                      ; preds = %47
  call fastcc void @_ZN4klee12ImmutableSetIjSt4lessIjEED2Ev(%"class.klee::ImmutableSet"* %set33), !dbg !1112
  call fastcc void @_ZN4klee12ImmutableSetIjSt4lessIjEED2Ev(%"class.klee::ImmutableSet"* %set22), !dbg !1112
  br label %52

; <label>:52                                      ; preds = %51, %34
  call fastcc void @_ZN4klee12ImmutableSetIjSt4lessIjEED2Ev(%"class.klee::ImmutableSet"* %set), !dbg !1113
  ret void, !dbg !1113
}

; Function Attrs: nounwind uwtable
define internal fastcc void @_ZN4klee12ImmutableSetIjSt4lessIjEEC2Ev(%"class.klee::ImmutableSet"* nocapture %this) unnamed_addr #1 align 2 {
  %1 = getelementptr inbounds %"class.klee::ImmutableSet"* %this, i64 0, i32 0, !dbg !1114
  tail call fastcc void @_ZN4klee13ImmutableTreeIjjNS_9_IdentityIjEESt4lessIjEEC2Ev(%"class.klee::ImmutableTree"* %1), !dbg !1114
  ret void, !dbg !1114
}

; Function Attrs: noreturn
declare void @klee_silent_exit(i32) #4

; Function Attrs: nounwind uwtable
define internal fastcc void @_ZN4klee12ImmutableSetIjSt4lessIjEEaSERKS3_(%"class.klee::ImmutableSet"* nocapture %this, %"class.klee::ImmutableSet"* nocapture readonly %b) #1 align 2 {
  %1 = getelementptr inbounds %"class.klee::ImmutableSet"* %this, i64 0, i32 0, !dbg !1115
  %.idx = getelementptr %"class.klee::ImmutableSet"* %b, i64 0, i32 0, i32 0
  %.idx.val = load %"class.klee::ImmutableTree<unsigned int, unsigned int, klee::_Identity<unsigned int>, std::less<unsigned int> >::Node"** %.idx, align 8
  tail call fastcc void @_ZN4klee13ImmutableTreeIjjNS_9_IdentityIjEESt4lessIjEEaSERKS5_(%"class.klee::ImmutableTree"* %1, %"class.klee::ImmutableTree<unsigned int, unsigned int, klee::_Identity<unsigned int>, std::less<unsigned int> >::Node"* %.idx.val)
  ret void
}

; Function Attrs: nounwind uwtable
define internal fastcc void @_ZNK4klee12ImmutableSetIjSt4lessIjEE6insertERKj(%"class.klee::ImmutableSet"* noalias nocapture sret %agg.result, %"class.klee::ImmutableSet"* nocapture readonly %this, i32* readonly %value) #1 align 2 {
  %1 = alloca %"class.klee::ImmutableTree", align 8
  %.idx = getelementptr %"class.klee::ImmutableSet"* %this, i64 0, i32 0, i32 0
  %.idx.val = load %"class.klee::ImmutableTree<unsigned int, unsigned int, klee::_Identity<unsigned int>, std::less<unsigned int> >::Node"** %.idx, align 8
  call fastcc void @_ZNK4klee13ImmutableTreeIjjNS_9_IdentityIjEESt4lessIjEE6insertERKj(%"class.klee::ImmutableTree"* sret %1, %"class.klee::ImmutableTree<unsigned int, unsigned int, klee::_Identity<unsigned int>, std::less<unsigned int> >::Node"* %.idx.v
  %.idx1 = getelementptr %"class.klee::ImmutableTree"* %1, i64 0, i32 0
  %.idx1.val = load %"class.klee::ImmutableTree<unsigned int, unsigned int, klee::_Identity<unsigned int>, std::less<unsigned int> >::Node"** %.idx1, align 8
  call fastcc void @_ZN4klee12ImmutableSetIjSt4lessIjEEC2ERKNS_13ImmutableTreeIjjNS_9_IdentityIjEES2_EE(%"class.klee::ImmutableSet"* %agg.result, %"class.klee::ImmutableTree<unsigned int, unsigned int, klee::_Identity<unsigned int>, std::less<unsigned in
  %.idx2.val = load %"class.klee::ImmutableTree<unsigned int, unsigned int, klee::_Identity<unsigned int>, std::less<unsigned int> >::Node"** %.idx1, align 8
  call fastcc void @_ZN4klee13ImmutableTreeIjjNS_9_IdentityIjEESt4lessIjEED2Ev(%"class.klee::ImmutableTree<unsigned int, unsigned int, klee::_Identity<unsigned int>, std::less<unsigned int> >::Node"* %.idx2.val)
  ret void, !dbg !1117
}

; Function Attrs: nounwind uwtable
define internal fastcc void @_ZN4klee12ImmutableSetIjSt4lessIjEED2Ev(%"class.klee::ImmutableSet"* nocapture readonly %this) unnamed_addr #1 align 2 {
  %.idx = getelementptr %"class.klee::ImmutableSet"* %this, i64 0, i32 0, i32 0
  %.idx.val = load %"class.klee::ImmutableTree<unsigned int, unsigned int, klee::_Identity<unsigned int>, std::less<unsigned int> >::Node"** %.idx, align 8
  tail call fastcc void @_ZN4klee13ImmutableTreeIjjNS_9_IdentityIjEESt4lessIjEED2Ev(%"class.klee::ImmutableTree<unsigned int, unsigned int, klee::_Identity<unsigned int>, std::less<unsigned int> >::Node"* %.idx.val)
  ret void, !dbg !1119
}

; Function Attrs: nounwind uwtable
define internal fastcc void @_ZNK4klee12ImmutableSetIjSt4lessIjEE6removeERKj(%"class.klee::ImmutableSet"* noalias nocapture sret %agg.result, %"class.klee::ImmutableSet"* nocapture readonly %this, i32* readonly %key) #1 align 2 {
  %1 = alloca %"class.klee::ImmutableTree", align 8
  %.idx2 = getelementptr %"class.klee::ImmutableSet"* %this, i64 0, i32 0, i32 0
  %.idx2.val = load %"class.klee::ImmutableTree<unsigned int, unsigned int, klee::_Identity<unsigned int>, std::less<unsigned int> >::Node"** %.idx2, align 8
  call fastcc void @_ZNK4klee13ImmutableTreeIjjNS_9_IdentityIjEESt4lessIjEE6removeERKj(%"class.klee::ImmutableTree"* sret %1, %"class.klee::ImmutableTree<unsigned int, unsigned int, klee::_Identity<unsigned int>, std::less<unsigned int> >::Node"* %.idx2.
  %.idx = getelementptr %"class.klee::ImmutableTree"* %1, i64 0, i32 0
  %.idx.val = load %"class.klee::ImmutableTree<unsigned int, unsigned int, klee::_Identity<unsigned int>, std::less<unsigned int> >::Node"** %.idx, align 8
  call fastcc void @_ZN4klee12ImmutableSetIjSt4lessIjEEC2ERKNS_13ImmutableTreeIjjNS_9_IdentityIjEES2_EE(%"class.klee::ImmutableSet"* %agg.result, %"class.klee::ImmutableTree<unsigned int, unsigned int, klee::_Identity<unsigned int>, std::less<unsigned in
  %.idx1.val = load %"class.klee::ImmutableTree<unsigned int, unsigned int, klee::_Identity<unsigned int>, std::less<unsigned int> >::Node"** %.idx, align 8
  call fastcc void @_ZN4klee13ImmutableTreeIjjNS_9_IdentityIjEESt4lessIjEED2Ev(%"class.klee::ImmutableTree<unsigned int, unsigned int, klee::_Identity<unsigned int>, std::less<unsigned int> >::Node"* %.idx1.val)
  ret void, !dbg !1120
}

; Function Attrs: nounwind uwtable
define i32 @main(i32 %argc, i8** nocapture readnone %argv) #1 {
  call void @klee.ctor_stub()
  tail call fastcc void @_Z4testv(), !dbg !1121
  %1 = tail call fastcc i64 @_ZN4klee12ImmutableSetIjSt4lessIjEE12getAllocatedEv(), !dbg !1122
  %2 = icmp eq i64 %1, 0, !dbg !1122
  br i1 %2, label %4, label %3, !dbg !1122

; <label>:3                                       ; preds = %0
  tail call void @__assert_fail(i8* getelementptr inbounds ([23 x i8]* @.str20, i64 0, i64 0), i8* getelementptr inbounds ([59 x i8]* @.str1, i64 0, i64 0), i32 133, i8* getelementptr inbounds ([23 x i8]* @__PRETTY_FUNCTION__.main, i64 0, i64 0)) #16, !d
  unreachable, !dbg !1122

; <label>:4                                       ; preds = %0
  call void @klee.dtor_stub()
  ret i32 0, !dbg !1123
}

; Function Attrs: nounwind readonly uwtable
define internal fastcc i64 @_ZN4klee12ImmutableSetIjSt4lessIjEE12getAllocatedEv() #3 align 2 {
  %1 = load i64* @_ZN4klee13ImmutableTreeIjjNS_9_IdentityIjEESt4lessIjEE9allocatedE, align 8, !dbg !1124
  ret i64 %1, !dbg !1124
}

; Function Attrs: nounwind
define internal void @__cxx_global_var_init() #5 section ".text.startup" {
  %1 = load i8* bitcast (i64* @_ZGVN4klee13ImmutableTreeIjjNS_9_IdentityIjEESt4lessIjEE4Node10terminatorE to i8*), align 8, !dbg !1126
  %2 = icmp eq i8 %1, 0, !dbg !1126
  br i1 %2, label %3, label %4, !dbg !1126

; <label>:3                                       ; preds = %0
  tail call fastcc void @_ZN4klee13ImmutableTreeIjjNS_9_IdentityIjEESt4lessIjEE4NodeC2Ev(), !dbg !1126
  tail call fastcc void @__cxa_atexit() #5, !dbg !1126
  store i64 1, i64* @_ZGVN4klee13ImmutableTreeIjjNS_9_IdentityIjEESt4lessIjEE4Node10terminatorE, align 8, !dbg !1126
  br label %4, !dbg !1126

; <label>:4                                       ; preds = %3, %0
  ret void, !dbg !1126
}

; Function Attrs: nounwind uwtable
define internal fastcc void @_ZN4klee13ImmutableTreeIjjNS_9_IdentityIjEESt4lessIjEE4NodeC2Ev() unnamed_addr #1 align 2 {
  store %"class.klee::ImmutableTree<unsigned int, unsigned int, klee::_Identity<unsigned int>, std::less<unsigned int> >::Node"* @_ZN4klee13ImmutableTreeIjjNS_9_IdentityIjEESt4lessIjEE4Node10terminatorE, %"class.klee::ImmutableTree<unsigned int, unsigned
  store %"class.klee::ImmutableTree<unsigned int, unsigned int, klee::_Identity<unsigned int>, std::less<unsigned int> >::Node"* @_ZN4klee13ImmutableTreeIjjNS_9_IdentityIjEESt4lessIjEE4Node10terminatorE, %"class.klee::ImmutableTree<unsigned int, unsigned
  store i32 0, i32* getelementptr inbounds (%"class.klee::ImmutableTree<unsigned int, unsigned int, klee::_Identity<unsigned int>, std::less<unsigned int> >::Node"* @_ZN4klee13ImmutableTreeIjjNS_9_IdentityIjEESt4lessIjEE4Node10terminatorE, i64 0, i32 3),
  store i32 3, i32* getelementptr inbounds (%"class.klee::ImmutableTree<unsigned int, unsigned int, klee::_Identity<unsigned int>, std::less<unsigned int> >::Node"* @_ZN4klee13ImmutableTreeIjjNS_9_IdentityIjEESt4lessIjEE4Node10terminatorE, i64 0, i32 4),
  ret void, !dbg !1129
}

; Function Attrs: nounwind uwtable
define internal void @_ZN4klee13ImmutableTreeIjjNS_9_IdentityIjEESt4lessIjEE4NodeD2Ev(%"class.klee::ImmutableTree<unsigned int, unsigned int, klee::_Identity<unsigned int>, std::less<unsigned int> >::Node"* nocapture readonly %this) unnamed_addr #1 align
  %1 = getelementptr inbounds %"class.klee::ImmutableTree<unsigned int, unsigned int, klee::_Identity<unsigned int>, std::less<unsigned int> >::Node"* %this, i64 0, i32 0, !dbg !1130
  %2 = load %"class.klee::ImmutableTree<unsigned int, unsigned int, klee::_Identity<unsigned int>, std::less<unsigned int> >::Node"** %1, align 8, !dbg !1130
  tail call fastcc void @_ZN4klee13ImmutableTreeIjjNS_9_IdentityIjEESt4lessIjEE4Node6decrefEv(%"class.klee::ImmutableTree<unsigned int, unsigned int, klee::_Identity<unsigned int>, std::less<unsigned int> >::Node"* %2), !dbg !1130
  %3 = getelementptr inbounds %"class.klee::ImmutableTree<unsigned int, unsigned int, klee::_Identity<unsigned int>, std::less<unsigned int> >::Node"* %this, i64 0, i32 1, !dbg !1132
  %4 = load %"class.klee::ImmutableTree<unsigned int, unsigned int, klee::_Identity<unsigned int>, std::less<unsigned int> >::Node"** %3, align 8, !dbg !1132
  tail call fastcc void @_ZN4klee13ImmutableTreeIjjNS_9_IdentityIjEESt4lessIjEE4Node6decrefEv(%"class.klee::ImmutableTree<unsigned int, unsigned int, klee::_Identity<unsigned int>, std::less<unsigned int> >::Node"* %4), !dbg !1132
  %5 = load i64* @_ZN4klee13ImmutableTreeIjjNS_9_IdentityIjEESt4lessIjEE9allocatedE, align 8, !dbg !1133
  %6 = add i64 %5, -1, !dbg !1133
  store i64 %6, i64* @_ZN4klee13ImmutableTreeIjjNS_9_IdentityIjEESt4lessIjEE9allocatedE, align 8, !dbg !1133
  ret void, !dbg !1134
}

; Function Attrs: nounwind uwtable
define internal fastcc void @_ZN4klee12ImmutableSetIjSt4lessIjEEC2ERKNS_13ImmutableTreeIjjNS_9_IdentityIjEES2_EE(%"class.klee::ImmutableSet"* nocapture %this, %"class.klee::ImmutableTree<unsigned int, unsigned int, klee::_Identity<unsigned int>, std::les
  %1 = getelementptr inbounds %"class.klee::ImmutableSet"* %this, i64 0, i32 0, !dbg !1135
  tail call fastcc void @_ZN4klee13ImmutableTreeIjjNS_9_IdentityIjEESt4lessIjEEC2ERKS5_(%"class.klee::ImmutableTree"* %1, %"class.klee::ImmutableTree<unsigned int, unsigned int, klee::_Identity<unsigned int>, std::less<unsigned int> >::Node"* %b.0.0.val)
  ret void, !dbg !1135
}

; Function Attrs: nounwind uwtable
define internal fastcc void @_ZNK4klee13ImmutableTreeIjjNS_9_IdentityIjEESt4lessIjEE6removeERKj(%"class.klee::ImmutableTree"* noalias nocapture sret %agg.result, %"class.klee::ImmutableTree<unsigned int, unsigned int, klee::_Identity<unsigned int>, std::
  %1 = tail call fastcc %"class.klee::ImmutableTree<unsigned int, unsigned int, klee::_Identity<unsigned int>, std::less<unsigned int> >::Node"* @_ZN4klee13ImmutableTreeIjjNS_9_IdentityIjEESt4lessIjEE4Node6removeERKj(%"class.klee::ImmutableTree<unsigned 
  tail call fastcc void @_ZN4klee13ImmutableTreeIjjNS_9_IdentityIjEESt4lessIjEEC2EPNS5_4NodeE(%"class.klee::ImmutableTree"* %agg.result, %"class.klee::ImmutableTree<unsigned int, unsigned int, klee::_Identity<unsigned int>, std::less<unsigned int> >::Nod
  ret void, !dbg !1137
}

; Function Attrs: nounwind uwtable
define internal fastcc void @_ZN4klee13ImmutableTreeIjjNS_9_IdentityIjEESt4lessIjEED2Ev(%"class.klee::ImmutableTree<unsigned int, unsigned int, klee::_Identity<unsigned int>, std::less<unsigned int> >::Node"* %this.0.0.val) unnamed_addr #1 align 2 {
  tail call fastcc void @_ZN4klee13ImmutableTreeIjjNS_9_IdentityIjEESt4lessIjEE4Node6decrefEv(%"class.klee::ImmutableTree<unsigned int, unsigned int, klee::_Identity<unsigned int>, std::less<unsigned int> >::Node"* %this.0.0.val), !dbg !1138
  ret void, !dbg !1141
}

; Function Attrs: nounwind uwtable
define internal fastcc void @_ZN4klee13ImmutableTreeIjjNS_9_IdentityIjEESt4lessIjEE4Node6decrefEv(%"class.klee::ImmutableTree<unsigned int, unsigned int, klee::_Identity<unsigned int>, std::less<unsigned int> >::Node"* %this) #1 align 2 {
  %1 = getelementptr inbounds %"class.klee::ImmutableTree<unsigned int, unsigned int, klee::_Identity<unsigned int>, std::less<unsigned int> >::Node"* %this, i64 0, i32 4, !dbg !1142
  %2 = load i32* %1, align 4, !dbg !1142
  %3 = add i32 %2, -1, !dbg !1142
  store i32 %3, i32* %1, align 4, !dbg !1142
  %4 = icmp ne i32 %3, 0, !dbg !1143
  %5 = icmp eq %"class.klee::ImmutableTree<unsigned int, unsigned int, klee::_Identity<unsigned int>, std::less<unsigned int> >::Node"* %this, null, !dbg !1143
  %or.cond = or i1 %4, %5, !dbg !1143
  br i1 %or.cond, label %8, label %6, !dbg !1143

; <label>:6                                       ; preds = %0
  tail call void @_ZN4klee13ImmutableTreeIjjNS_9_IdentityIjEESt4lessIjEE4NodeD2Ev(%"class.klee::ImmutableTree<unsigned int, unsigned int, klee::_Identity<unsigned int>, std::less<unsigned int> >::Node"* %this), !dbg !1143
  %7 = bitcast %"class.klee::ImmutableTree<unsigned int, unsigned int, klee::_Identity<unsigned int>, std::less<unsigned int> >::Node"* %this to i8*, !dbg !1143
  tail call void @_ZdlPv(i8* %7) #17, !dbg !1143
  br label %8, !dbg !1143

; <label>:8                                       ; preds = %0, %6
  ret void, !dbg !1145
}

; Function Attrs: nobuiltin nounwind
declare void @_ZdlPv(i8*) #6

; Function Attrs: nounwind uwtable
define internal fastcc void @_ZN4klee13ImmutableTreeIjjNS_9_IdentityIjEESt4lessIjEEC2EPNS5_4NodeE(%"class.klee::ImmutableTree"* nocapture %this, %"class.klee::ImmutableTree<unsigned int, unsigned int, klee::_Identity<unsigned int>, std::less<unsigned int
  %1 = getelementptr inbounds %"class.klee::ImmutableTree"* %this, i64 0, i32 0, !dbg !1146
  store %"class.klee::ImmutableTree<unsigned int, unsigned int, klee::_Identity<unsigned int>, std::less<unsigned int> >::Node"* %_node, %"class.klee::ImmutableTree<unsigned int, unsigned int, klee::_Identity<unsigned int>, std::less<unsigned int> >::Nod
  ret void, !dbg !1147
}

; Function Attrs: nounwind uwtable
define internal fastcc %"class.klee::ImmutableTree<unsigned int, unsigned int, klee::_Identity<unsigned int>, std::less<unsigned int> >::Node"* @_ZN4klee13ImmutableTreeIjjNS_9_IdentityIjEESt4lessIjEE4Node6removeERKj(%"class.klee::ImmutableTree<unsigned i
  %min = alloca i32, align 4
  %1 = tail call fastcc zeroext i1 @_ZN4klee13ImmutableTreeIjjNS_9_IdentityIjEESt4lessIjEE4Node12isTerminatorEv(%"class.klee::ImmutableTree<unsigned int, unsigned int, klee::_Identity<unsigned int>, std::less<unsigned int> >::Node"* %this), !dbg !1148
  br i1 %1, label %2, label %3, !dbg !1148

; <label>:2                                       ; preds = %0
  tail call fastcc void @_ZN4klee13ImmutableTreeIjjNS_9_IdentityIjEESt4lessIjEE4Node6increfEv(%"class.klee::ImmutableTree<unsigned int, unsigned int, klee::_Identity<unsigned int>, std::less<unsigned int> >::Node"* %this), !dbg !1150
  br label %36, !dbg !1150

; <label>:3                                       ; preds = %0
  %4 = getelementptr inbounds %"class.klee::ImmutableTree<unsigned int, unsigned int, klee::_Identity<unsigned int>, std::less<unsigned int> >::Node"* %this, i64 0, i32 2, !dbg !1152
  %k.val = load i32* %k, align 4
  %.val = load i32* %4, align 4
  %5 = call fastcc zeroext i1 @_ZNKSt4lessIjEclERKjS2_(i32 %k.val, i32 %.val)
  br i1 %5, label %6, label %13, !dbg !1152

; <label>:6                                       ; preds = %3
  %7 = getelementptr inbounds %"class.klee::ImmutableTree<unsigned int, unsigned int, klee::_Identity<unsigned int>, std::less<unsigned int> >::Node"* %this, i64 0, i32 0, !dbg !1155
  %8 = load %"class.klee::ImmutableTree<unsigned int, unsigned int, klee::_Identity<unsigned int>, std::less<unsigned int> >::Node"** %7, align 8, !dbg !1155
  %9 = tail call fastcc %"class.klee::ImmutableTree<unsigned int, unsigned int, klee::_Identity<unsigned int>, std::less<unsigned int> >::Node"* @_ZN4klee13ImmutableTreeIjjNS_9_IdentityIjEESt4lessIjEE4Node6removeERKj(%"class.klee::ImmutableTree<unsigned 
  %10 = getelementptr inbounds %"class.klee::ImmutableTree<unsigned int, unsigned int, klee::_Identity<unsigned int>, std::less<unsigned int> >::Node"* %this, i64 0, i32 1, !dbg !1155
  %11 = load %"class.klee::ImmutableTree<unsigned int, unsigned int, klee::_Identity<unsigned int>, std::less<unsigned int> >::Node"** %10, align 8, !dbg !1155
  tail call fastcc void @_ZN4klee13ImmutableTreeIjjNS_9_IdentityIjEESt4lessIjEE4Node6increfEv(%"class.klee::ImmutableTree<unsigned int, unsigned int, klee::_Identity<unsigned int>, std::less<unsigned int> >::Node"* %11), !dbg !1155
  %12 = tail call fastcc %"class.klee::ImmutableTree<unsigned int, unsigned int, klee::_Identity<unsigned int>, std::less<unsigned int> >::Node"* @_ZN4klee13ImmutableTreeIjjNS_9_IdentityIjEESt4lessIjEE4Node7balanceEPS6_RKjS7_(%"class.klee::ImmutableTree<
  br label %36, !dbg !1155

; <label>:13                                      ; preds = %3
  %.val1 = load i32* %4, align 4
  %k.val2 = load i32* %k, align 4
  %14 = call fastcc zeroext i1 @_ZNKSt4lessIjEclERKjS2_(i32 %.val1, i32 %k.val2)
  %15 = getelementptr inbounds %"class.klee::ImmutableTree<unsigned int, unsigned int, klee::_Identity<unsigned int>, std::less<unsigned int> >::Node"* %this, i64 0, i32 0, !dbg !1157
  %16 = load %"class.klee::ImmutableTree<unsigned int, unsigned int, klee::_Identity<unsigned int>, std::less<unsigned int> >::Node"** %15, align 8, !dbg !1157
  br i1 %14, label %17, label %22, !dbg !1160

; <label>:17                                      ; preds = %13
  tail call fastcc void @_ZN4klee13ImmutableTreeIjjNS_9_IdentityIjEESt4lessIjEE4Node6increfEv(%"class.klee::ImmutableTree<unsigned int, unsigned int, klee::_Identity<unsigned int>, std::less<unsigned int> >::Node"* %16), !dbg !1157
  %18 = getelementptr inbounds %"class.klee::ImmutableTree<unsigned int, unsigned int, klee::_Identity<unsigned int>, std::less<unsigned int> >::Node"* %this, i64 0, i32 1, !dbg !1157
  %19 = load %"class.klee::ImmutableTree<unsigned int, unsigned int, klee::_Identity<unsigned int>, std::less<unsigned int> >::Node"** %18, align 8, !dbg !1157
  %20 = tail call fastcc %"class.klee::ImmutableTree<unsigned int, unsigned int, klee::_Identity<unsigned int>, std::less<unsigned int> >::Node"* @_ZN4klee13ImmutableTreeIjjNS_9_IdentityIjEESt4lessIjEE4Node6removeERKj(%"class.klee::ImmutableTree<unsigned
  %21 = tail call fastcc %"class.klee::ImmutableTree<unsigned int, unsigned int, klee::_Identity<unsigned int>, std::less<unsigned int> >::Node"* @_ZN4klee13ImmutableTreeIjjNS_9_IdentityIjEESt4lessIjEE4Node7balanceEPS6_RKjS7_(%"class.klee::ImmutableTree<
  br label %36, !dbg !1157

; <label>:22                                      ; preds = %13
  %23 = tail call fastcc zeroext i1 @_ZN4klee13ImmutableTreeIjjNS_9_IdentityIjEESt4lessIjEE4Node12isTerminatorEv(%"class.klee::ImmutableTree<unsigned int, unsigned int, klee::_Identity<unsigned int>, std::less<unsigned int> >::Node"* %16), !dbg !1161
  %24 = getelementptr inbounds %"class.klee::ImmutableTree<unsigned int, unsigned int, klee::_Identity<unsigned int>, std::less<unsigned int> >::Node"* %this, i64 0, i32 1, !dbg !1164
  %25 = load %"class.klee::ImmutableTree<unsigned int, unsigned int, klee::_Identity<unsigned int>, std::less<unsigned int> >::Node"** %24, align 8, !dbg !1164
  br i1 %23, label %26, label %27, !dbg !1161

; <label>:26                                      ; preds = %22
  tail call fastcc void @_ZN4klee13ImmutableTreeIjjNS_9_IdentityIjEESt4lessIjEE4Node6increfEv(%"class.klee::ImmutableTree<unsigned int, unsigned int, klee::_Identity<unsigned int>, std::less<unsigned int> >::Node"* %25), !dbg !1164
  br label %36, !dbg !1164

; <label>:27                                      ; preds = %22
  %28 = tail call fastcc zeroext i1 @_ZN4klee13ImmutableTreeIjjNS_9_IdentityIjEESt4lessIjEE4Node12isTerminatorEv(%"class.klee::ImmutableTree<unsigned int, unsigned int, klee::_Identity<unsigned int>, std::less<unsigned int> >::Node"* %25), !dbg !1166
  br i1 %28, label %29, label %31, !dbg !1166

; <label>:29                                      ; preds = %27
  %30 = load %"class.klee::ImmutableTree<unsigned int, unsigned int, klee::_Identity<unsigned int>, std::less<unsigned int> >::Node"** %15, align 8, !dbg !1168
  tail call fastcc void @_ZN4klee13ImmutableTreeIjjNS_9_IdentityIjEESt4lessIjEE4Node6increfEv(%"class.klee::ImmutableTree<unsigned int, unsigned int, klee::_Identity<unsigned int>, std::less<unsigned int> >::Node"* %30), !dbg !1168
  br label %36, !dbg !1168

; <label>:31                                      ; preds = %27
  %32 = load %"class.klee::ImmutableTree<unsigned int, unsigned int, klee::_Identity<unsigned int>, std::less<unsigned int> >::Node"** %24, align 8, !dbg !1170
  %33 = call fastcc %"class.klee::ImmutableTree<unsigned int, unsigned int, klee::_Identity<unsigned int>, std::less<unsigned int> >::Node"* @_ZN4klee13ImmutableTreeIjjNS_9_IdentityIjEESt4lessIjEE4Node6popMinERj(%"class.klee::ImmutableTree<unsigned int, 
  %34 = load %"class.klee::ImmutableTree<unsigned int, unsigned int, klee::_Identity<unsigned int>, std::less<unsigned int> >::Node"** %15, align 8, !dbg !1172
  tail call fastcc void @_ZN4klee13ImmutableTreeIjjNS_9_IdentityIjEESt4lessIjEE4Node6increfEv(%"class.klee::ImmutableTree<unsigned int, unsigned int, klee::_Identity<unsigned int>, std::less<unsigned int> >::Node"* %34), !dbg !1172
  %35 = call fastcc %"class.klee::ImmutableTree<unsigned int, unsigned int, klee::_Identity<unsigned int>, std::less<unsigned int> >::Node"* @_ZN4klee13ImmutableTreeIjjNS_9_IdentityIjEESt4lessIjEE4Node7balanceEPS6_RKjS7_(%"class.klee::ImmutableTree<unsig
  br label %36, !dbg !1172

; <label>:36                                      ; preds = %31, %29, %26, %17, %6, %2
  %.0 = phi %"class.klee::ImmutableTree<unsigned int, unsigned int, klee::_Identity<unsigned int>, std::less<unsigned int> >::Node"* [ %this, %2 ], [ %12, %6 ], [ %21, %17 ], [ %25, %26 ], [ %30, %29 ], [ %35, %31 ]
  ret %"class.klee::ImmutableTree<unsigned int, unsigned int, klee::_Identity<unsigned int>, std::less<unsigned int> >::Node"* %.0, !dbg !1173
}

; Function Attrs: nounwind readnone uwtable
define internal fastcc zeroext i1 @_ZN4klee13ImmutableTreeIjjNS_9_IdentityIjEESt4lessIjEE4Node12isTerminatorEv(%"class.klee::ImmutableTree<unsigned int, unsigned int, klee::_Identity<unsigned int>, std::less<unsigned int> >::Node"* readnone %this) #0 ali
  %1 = icmp eq %"class.klee::ImmutableTree<unsigned int, unsigned int, klee::_Identity<unsigned int>, std::less<unsigned int> >::Node"* %this, @_ZN4klee13ImmutableTreeIjjNS_9_IdentityIjEESt4lessIjEE4Node10terminatorE, !dbg !1174
  ret i1 %1, !dbg !1174
}

; Function Attrs: nounwind uwtable
define internal fastcc void @_ZN4klee13ImmutableTreeIjjNS_9_IdentityIjEESt4lessIjEE4Node6increfEv(%"class.klee::ImmutableTree<unsigned int, unsigned int, klee::_Identity<unsigned int>, std::less<unsigned int> >::Node"* nocapture %this) #1 align 2 {
  %1 = getelementptr inbounds %"class.klee::ImmutableTree<unsigned int, unsigned int, klee::_Identity<unsigned int>, std::less<unsigned int> >::Node"* %this, i64 0, i32 4, !dbg !1175
  %2 = load i32* %1, align 4, !dbg !1175
  %3 = add i32 %2, 1, !dbg !1175
  store i32 %3, i32* %1, align 4, !dbg !1175
  ret void
}

; Function Attrs: nounwind readnone uwtable
define internal fastcc zeroext i1 @_ZNKSt4lessIjEclERKjS2_(i32 %__x.val, i32 %__y.val) #0 align 2 {
  %1 = icmp ult i32 %__x.val, %__y.val, !dbg !1177
  ret i1 %1, !dbg !1177
}

; Function Attrs: nounwind uwtable
define internal fastcc noalias %"class.klee::ImmutableTree<unsigned int, unsigned int, klee::_Identity<unsigned int>, std::less<unsigned int> >::Node"* @_ZN4klee13ImmutableTreeIjjNS_9_IdentityIjEESt4lessIjEE4Node7balanceEPS6_RKjS7_(%"class.klee::Immutabl
  %1 = getelementptr inbounds %"class.klee::ImmutableTree<unsigned int, unsigned int, klee::_Identity<unsigned int>, std::less<unsigned int> >::Node"* %left, i64 0, i32 3, !dbg !1179
  %2 = load i32* %1, align 4, !dbg !1179
  %3 = getelementptr inbounds %"class.klee::ImmutableTree<unsigned int, unsigned int, klee::_Identity<unsigned int>, std::less<unsigned int> >::Node"* %right, i64 0, i32 3, !dbg !1179
  %4 = load i32* %3, align 4, !dbg !1179
  %5 = add i32 %4, 2, !dbg !1179
  %6 = icmp ugt i32 %2, %5, !dbg !1179
  br i1 %6, label %7, label %36, !dbg !1179

; <label>:7                                       ; preds = %0
  %8 = getelementptr inbounds %"class.klee::ImmutableTree<unsigned int, unsigned int, klee::_Identity<unsigned int>, std::less<unsigned int> >::Node"* %left, i64 0, i32 0, !dbg !1181
  %9 = load %"class.klee::ImmutableTree<unsigned int, unsigned int, klee::_Identity<unsigned int>, std::less<unsigned int> >::Node"** %8, align 8, !dbg !1181
  %10 = getelementptr inbounds %"class.klee::ImmutableTree<unsigned int, unsigned int, klee::_Identity<unsigned int>, std::less<unsigned int> >::Node"* %left, i64 0, i32 1, !dbg !1183
  %11 = load %"class.klee::ImmutableTree<unsigned int, unsigned int, klee::_Identity<unsigned int>, std::less<unsigned int> >::Node"** %10, align 8, !dbg !1183
  %12 = getelementptr inbounds %"class.klee::ImmutableTree<unsigned int, unsigned int, klee::_Identity<unsigned int>, std::less<unsigned int> >::Node"* %9, i64 0, i32 3, !dbg !1184
  %13 = load i32* %12, align 4, !dbg !1184
  %14 = getelementptr inbounds %"class.klee::ImmutableTree<unsigned int, unsigned int, klee::_Identity<unsigned int>, std::less<unsigned int> >::Node"* %11, i64 0, i32 3, !dbg !1184
  %15 = load i32* %14, align 4, !dbg !1184
  %16 = icmp ult i32 %13, %15, !dbg !1184
  br i1 %16, label %23, label %17, !dbg !1184

; <label>:17                                      ; preds = %7
  %18 = tail call noalias i8* @_Znwm(i64 32) #17, !dbg !1186
  %19 = bitcast i8* %18 to %"class.klee::ImmutableTree<unsigned int, unsigned int, klee::_Identity<unsigned int>, std::less<unsigned int> >::Node"*, !dbg !1186
  tail call fastcc void @_ZN4klee13ImmutableTreeIjjNS_9_IdentityIjEESt4lessIjEE4Node6increfEv(%"class.klee::ImmutableTree<unsigned int, unsigned int, klee::_Identity<unsigned int>, std::less<unsigned int> >::Node"* %11), !dbg !1186
  tail call fastcc void @_ZN4klee13ImmutableTreeIjjNS_9_IdentityIjEESt4lessIjEE4NodeC2EPS6_S7_RKj(%"class.klee::ImmutableTree<unsigned int, unsigned int, klee::_Identity<unsigned int>, std::less<unsigned int> >::Node"* %19, %"class.klee::ImmutableTree<un
  %20 = tail call noalias i8* @_Znwm(i64 32) #17, !dbg !1188
  %21 = bitcast i8* %20 to %"class.klee::ImmutableTree<unsigned int, unsigned int, klee::_Identity<unsigned int>, std::less<unsigned int> >::Node"*, !dbg !1188
  tail call fastcc void @_ZN4klee13ImmutableTreeIjjNS_9_IdentityIjEESt4lessIjEE4Node6increfEv(%"class.klee::ImmutableTree<unsigned int, unsigned int, klee::_Identity<unsigned int>, std::less<unsigned int> >::Node"* %9), !dbg !1188
  %22 = getelementptr inbounds %"class.klee::ImmutableTree<unsigned int, unsigned int, klee::_Identity<unsigned int>, std::less<unsigned int> >::Node"* %left, i64 0, i32 2, !dbg !1188
  tail call fastcc void @_ZN4klee13ImmutableTreeIjjNS_9_IdentityIjEESt4lessIjEE4NodeC2EPS6_S7_RKj(%"class.klee::ImmutableTree<unsigned int, unsigned int, klee::_Identity<unsigned int>, std::less<unsigned int> >::Node"* %21, %"class.klee::ImmutableTree<un
  tail call fastcc void @_ZN4klee13ImmutableTreeIjjNS_9_IdentityIjEESt4lessIjEE4Node6decrefEv(%"class.klee::ImmutableTree<unsigned int, unsigned int, klee::_Identity<unsigned int>, std::less<unsigned int> >::Node"* %left), !dbg !1189
  br label %73, !dbg !1190

; <label>:23                                      ; preds = %7
  %24 = getelementptr inbounds %"class.klee::ImmutableTree<unsigned int, unsigned int, klee::_Identity<unsigned int>, std::less<unsigned int> >::Node"* %11, i64 0, i32 0, !dbg !1191
  %25 = load %"class.klee::ImmutableTree<unsigned int, unsigned int, klee::_Identity<unsigned int>, std::less<unsigned int> >::Node"** %24, align 8, !dbg !1191
  %26 = getelementptr inbounds %"class.klee::ImmutableTree<unsigned int, unsigned int, klee::_Identity<unsigned int>, std::less<unsigned int> >::Node"* %11, i64 0, i32 1, !dbg !1193
  %27 = load %"class.klee::ImmutableTree<unsigned int, unsigned int, klee::_Identity<unsigned int>, std::less<unsigned int> >::Node"** %26, align 8, !dbg !1193
  %28 = tail call noalias i8* @_Znwm(i64 32) #17, !dbg !1194
  %29 = bitcast i8* %28 to %"class.klee::ImmutableTree<unsigned int, unsigned int, klee::_Identity<unsigned int>, std::less<unsigned int> >::Node"*, !dbg !1194
  tail call fastcc void @_ZN4klee13ImmutableTreeIjjNS_9_IdentityIjEESt4lessIjEE4Node6increfEv(%"class.klee::ImmutableTree<unsigned int, unsigned int, klee::_Identity<unsigned int>, std::less<unsigned int> >::Node"* %9), !dbg !1194
  tail call fastcc void @_ZN4klee13ImmutableTreeIjjNS_9_IdentityIjEESt4lessIjEE4Node6increfEv(%"class.klee::ImmutableTree<unsigned int, unsigned int, klee::_Identity<unsigned int>, std::less<unsigned int> >::Node"* %25), !dbg !1194
  %30 = getelementptr inbounds %"class.klee::ImmutableTree<unsigned int, unsigned int, klee::_Identity<unsigned int>, std::less<unsigned int> >::Node"* %left, i64 0, i32 2, !dbg !1194
  tail call fastcc void @_ZN4klee13ImmutableTreeIjjNS_9_IdentityIjEESt4lessIjEE4NodeC2EPS6_S7_RKj(%"class.klee::ImmutableTree<unsigned int, unsigned int, klee::_Identity<unsigned int>, std::less<unsigned int> >::Node"* %29, %"class.klee::ImmutableTree<un
  %31 = tail call noalias i8* @_Znwm(i64 32) #17, !dbg !1195
  %32 = bitcast i8* %31 to %"class.klee::ImmutableTree<unsigned int, unsigned int, klee::_Identity<unsigned int>, std::less<unsigned int> >::Node"*, !dbg !1195
  tail call fastcc void @_ZN4klee13ImmutableTreeIjjNS_9_IdentityIjEESt4lessIjEE4Node6increfEv(%"class.klee::ImmutableTree<unsigned int, unsigned int, klee::_Identity<unsigned int>, std::less<unsigned int> >::Node"* %27), !dbg !1195
  tail call fastcc void @_ZN4klee13ImmutableTreeIjjNS_9_IdentityIjEESt4lessIjEE4NodeC2EPS6_S7_RKj(%"class.klee::ImmutableTree<unsigned int, unsigned int, klee::_Identity<unsigned int>, std::less<unsigned int> >::Node"* %32, %"class.klee::ImmutableTree<un
  %33 = tail call noalias i8* @_Znwm(i64 32) #17, !dbg !1196
  %34 = bitcast i8* %33 to %"class.klee::ImmutableTree<unsigned int, unsigned int, klee::_Identity<unsigned int>, std::less<unsigned int> >::Node"*, !dbg !1196
  %35 = getelementptr inbounds %"class.klee::ImmutableTree<unsigned int, unsigned int, klee::_Identity<unsigned int>, std::less<unsigned int> >::Node"* %11, i64 0, i32 2, !dbg !1196
  tail call fastcc void @_ZN4klee13ImmutableTreeIjjNS_9_IdentityIjEESt4lessIjEE4NodeC2EPS6_S7_RKj(%"class.klee::ImmutableTree<unsigned int, unsigned int, klee::_Identity<unsigned int>, std::less<unsigned int> >::Node"* %34, %"class.klee::ImmutableTree<un
  tail call fastcc void @_ZN4klee13ImmutableTreeIjjNS_9_IdentityIjEESt4lessIjEE4Node6decrefEv(%"class.klee::ImmutableTree<unsigned int, unsigned int, klee::_Identity<unsigned int>, std::less<unsigned int> >::Node"* %left), !dbg !1197
  br label %73, !dbg !1198

; <label>:36                                      ; preds = %0
  %37 = load i32* %3, align 4, !dbg !1199
  %38 = load i32* %1, align 4, !dbg !1199
  %39 = add i32 %38, 2, !dbg !1199
  %40 = icmp ugt i32 %37, %39, !dbg !1199
  br i1 %40, label %41, label %70, !dbg !1199

; <label>:41                                      ; preds = %36
  %42 = getelementptr inbounds %"class.klee::ImmutableTree<unsigned int, unsigned int, klee::_Identity<unsigned int>, std::less<unsigned int> >::Node"* %right, i64 0, i32 0, !dbg !1201
  %43 = load %"class.klee::ImmutableTree<unsigned int, unsigned int, klee::_Identity<unsigned int>, std::less<unsigned int> >::Node"** %42, align 8, !dbg !1201
  %44 = getelementptr inbounds %"class.klee::ImmutableTree<unsigned int, unsigned int, klee::_Identity<unsigned int>, std::less<unsigned int> >::Node"* %right, i64 0, i32 1, !dbg !1203
  %45 = load %"class.klee::ImmutableTree<unsigned int, unsigned int, klee::_Identity<unsigned int>, std::less<unsigned int> >::Node"** %44, align 8, !dbg !1203
  %46 = getelementptr inbounds %"class.klee::ImmutableTree<unsigned int, unsigned int, klee::_Identity<unsigned int>, std::less<unsigned int> >::Node"* %45, i64 0, i32 3, !dbg !1204
  %47 = load i32* %46, align 4, !dbg !1204
  %48 = getelementptr inbounds %"class.klee::ImmutableTree<unsigned int, unsigned int, klee::_Identity<unsigned int>, std::less<unsigned int> >::Node"* %43, i64 0, i32 3, !dbg !1204
  %49 = load i32* %48, align 4, !dbg !1204
  %50 = icmp ult i32 %47, %49, !dbg !1204
  br i1 %50, label %57, label %51, !dbg !1204

; <label>:51                                      ; preds = %41
  %52 = tail call noalias i8* @_Znwm(i64 32) #17, !dbg !1206
  %53 = bitcast i8* %52 to %"class.klee::ImmutableTree<unsigned int, unsigned int, klee::_Identity<unsigned int>, std::less<unsigned int> >::Node"*, !dbg !1206
  tail call fastcc void @_ZN4klee13ImmutableTreeIjjNS_9_IdentityIjEESt4lessIjEE4Node6increfEv(%"class.klee::ImmutableTree<unsigned int, unsigned int, klee::_Identity<unsigned int>, std::less<unsigned int> >::Node"* %43), !dbg !1206
  tail call fastcc void @_ZN4klee13ImmutableTreeIjjNS_9_IdentityIjEESt4lessIjEE4NodeC2EPS6_S7_RKj(%"class.klee::ImmutableTree<unsigned int, unsigned int, klee::_Identity<unsigned int>, std::less<unsigned int> >::Node"* %53, %"class.klee::ImmutableTree<un
  %54 = tail call noalias i8* @_Znwm(i64 32) #17, !dbg !1208
  %55 = bitcast i8* %54 to %"class.klee::ImmutableTree<unsigned int, unsigned int, klee::_Identity<unsigned int>, std::less<unsigned int> >::Node"*, !dbg !1208
  tail call fastcc void @_ZN4klee13ImmutableTreeIjjNS_9_IdentityIjEESt4lessIjEE4Node6increfEv(%"class.klee::ImmutableTree<unsigned int, unsigned int, klee::_Identity<unsigned int>, std::less<unsigned int> >::Node"* %45), !dbg !1208
  %56 = getelementptr inbounds %"class.klee::ImmutableTree<unsigned int, unsigned int, klee::_Identity<unsigned int>, std::less<unsigned int> >::Node"* %right, i64 0, i32 2, !dbg !1208
  tail call fastcc void @_ZN4klee13ImmutableTreeIjjNS_9_IdentityIjEESt4lessIjEE4NodeC2EPS6_S7_RKj(%"class.klee::ImmutableTree<unsigned int, unsigned int, klee::_Identity<unsigned int>, std::less<unsigned int> >::Node"* %55, %"class.klee::ImmutableTree<un
  tail call fastcc void @_ZN4klee13ImmutableTreeIjjNS_9_IdentityIjEESt4lessIjEE4Node6decrefEv(%"class.klee::ImmutableTree<unsigned int, unsigned int, klee::_Identity<unsigned int>, std::less<unsigned int> >::Node"* %right), !dbg !1209
  br label %73, !dbg !1210

; <label>:57                                      ; preds = %41
  %58 = getelementptr inbounds %"class.klee::ImmutableTree<unsigned int, unsigned int, klee::_Identity<unsigned int>, std::less<unsigned int> >::Node"* %43, i64 0, i32 0, !dbg !1211
  %59 = load %"class.klee::ImmutableTree<unsigned int, unsigned int, klee::_Identity<unsigned int>, std::less<unsigned int> >::Node"** %58, align 8, !dbg !1211
  %60 = getelementptr inbounds %"class.klee::ImmutableTree<unsigned int, unsigned int, klee::_Identity<unsigned int>, std::less<unsigned int> >::Node"* %43, i64 0, i32 1, !dbg !1213
  %61 = load %"class.klee::ImmutableTree<unsigned int, unsigned int, klee::_Identity<unsigned int>, std::less<unsigned int> >::Node"** %60, align 8, !dbg !1213
  %62 = tail call noalias i8* @_Znwm(i64 32) #17, !dbg !1214
  %63 = bitcast i8* %62 to %"class.klee::ImmutableTree<unsigned int, unsigned int, klee::_Identity<unsigned int>, std::less<unsigned int> >::Node"*, !dbg !1214
  tail call fastcc void @_ZN4klee13ImmutableTreeIjjNS_9_IdentityIjEESt4lessIjEE4Node6increfEv(%"class.klee::ImmutableTree<unsigned int, unsigned int, klee::_Identity<unsigned int>, std::less<unsigned int> >::Node"* %59), !dbg !1214
  tail call fastcc void @_ZN4klee13ImmutableTreeIjjNS_9_IdentityIjEESt4lessIjEE4NodeC2EPS6_S7_RKj(%"class.klee::ImmutableTree<unsigned int, unsigned int, klee::_Identity<unsigned int>, std::less<unsigned int> >::Node"* %63, %"class.klee::ImmutableTree<un
  %64 = tail call noalias i8* @_Znwm(i64 32) #17, !dbg !1215
  %65 = bitcast i8* %64 to %"class.klee::ImmutableTree<unsigned int, unsigned int, klee::_Identity<unsigned int>, std::less<unsigned int> >::Node"*, !dbg !1215
  tail call fastcc void @_ZN4klee13ImmutableTreeIjjNS_9_IdentityIjEESt4lessIjEE4Node6increfEv(%"class.klee::ImmutableTree<unsigned int, unsigned int, klee::_Identity<unsigned int>, std::less<unsigned int> >::Node"* %61), !dbg !1215
  tail call fastcc void @_ZN4klee13ImmutableTreeIjjNS_9_IdentityIjEESt4lessIjEE4Node6increfEv(%"class.klee::ImmutableTree<unsigned int, unsigned int, klee::_Identity<unsigned int>, std::less<unsigned int> >::Node"* %45), !dbg !1215
  %66 = getelementptr inbounds %"class.klee::ImmutableTree<unsigned int, unsigned int, klee::_Identity<unsigned int>, std::less<unsigned int> >::Node"* %right, i64 0, i32 2, !dbg !1215
  tail call fastcc void @_ZN4klee13ImmutableTreeIjjNS_9_IdentityIjEESt4lessIjEE4NodeC2EPS6_S7_RKj(%"class.klee::ImmutableTree<unsigned int, unsigned int, klee::_Identity<unsigned int>, std::less<unsigned int> >::Node"* %65, %"class.klee::ImmutableTree<un
  %67 = tail call noalias i8* @_Znwm(i64 32) #17, !dbg !1216
  %68 = bitcast i8* %67 to %"class.klee::ImmutableTree<unsigned int, unsigned int, klee::_Identity<unsigned int>, std::less<unsigned int> >::Node"*, !dbg !1216
  %69 = getelementptr inbounds %"class.klee::ImmutableTree<unsigned int, unsigned int, klee::_Identity<unsigned int>, std::less<unsigned int> >::Node"* %43, i64 0, i32 2, !dbg !1216
  tail call fastcc void @_ZN4klee13ImmutableTreeIjjNS_9_IdentityIjEESt4lessIjEE4NodeC2EPS6_S7_RKj(%"class.klee::ImmutableTree<unsigned int, unsigned int, klee::_Identity<unsigned int>, std::less<unsigned int> >::Node"* %68, %"class.klee::ImmutableTree<un
  tail call fastcc void @_ZN4klee13ImmutableTreeIjjNS_9_IdentityIjEESt4lessIjEE4Node6decrefEv(%"class.klee::ImmutableTree<unsigned int, unsigned int, klee::_Identity<unsigned int>, std::less<unsigned int> >::Node"* %right), !dbg !1217
  br label %73, !dbg !1218

; <label>:70                                      ; preds = %36
  %71 = tail call noalias i8* @_Znwm(i64 32) #17, !dbg !1219
  %72 = bitcast i8* %71 to %"class.klee::ImmutableTree<unsigned int, unsigned int, klee::_Identity<unsigned int>, std::less<unsigned int> >::Node"*, !dbg !1219
  tail call fastcc void @_ZN4klee13ImmutableTreeIjjNS_9_IdentityIjEESt4lessIjEE4NodeC2EPS6_S7_RKj(%"class.klee::ImmutableTree<unsigned int, unsigned int, klee::_Identity<unsigned int>, std::less<unsigned int> >::Node"* %72, %"class.klee::ImmutableTree<un
  br label %73, !dbg !1219

; <label>:73                                      ; preds = %70, %57, %51, %23, %17
  %.0 = phi %"class.klee::ImmutableTree<unsigned int, unsigned int, klee::_Identity<unsigned int>, std::less<unsigned int> >::Node"* [ %21, %17 ], [ %34, %23 ], [ %55, %51 ], [ %68, %57 ], [ %72, %70 ]
  ret %"class.klee::ImmutableTree<unsigned int, unsigned int, klee::_Identity<unsigned int>, std::less<unsigned int> >::Node"* %.0, !dbg !1221
}

; Function Attrs: nounwind uwtable
define internal fastcc %"class.klee::ImmutableTree<unsigned int, unsigned int, klee::_Identity<unsigned int>, std::less<unsigned int> >::Node"* @_ZN4klee13ImmutableTreeIjjNS_9_IdentityIjEESt4lessIjEE4Node6popMinERj(%"class.klee::ImmutableTree<unsigned in
  %1 = getelementptr inbounds %"class.klee::ImmutableTree<unsigned int, unsigned int, klee::_Identity<unsigned int>, std::less<unsigned int> >::Node"* %this, i64 0, i32 0, !dbg !1222
  %2 = load %"class.klee::ImmutableTree<unsigned int, unsigned int, klee::_Identity<unsigned int>, std::less<unsigned int> >::Node"** %1, align 8, !dbg !1222
  %3 = tail call fastcc zeroext i1 @_ZN4klee13ImmutableTreeIjjNS_9_IdentityIjEESt4lessIjEE4Node12isTerminatorEv(%"class.klee::ImmutableTree<unsigned int, unsigned int, klee::_Identity<unsigned int>, std::less<unsigned int> >::Node"* %2), !dbg !1222
  br i1 %3, label %4, label %9, !dbg !1222

; <label>:4                                       ; preds = %0
  %5 = getelementptr inbounds %"class.klee::ImmutableTree<unsigned int, unsigned int, klee::_Identity<unsigned int>, std::less<unsigned int> >::Node"* %this, i64 0, i32 2, !dbg !1224
  %6 = load i32* %5, align 4, !dbg !1224
  store i32 %6, i32* %valueOut, align 4, !dbg !1224
  %7 = getelementptr inbounds %"class.klee::ImmutableTree<unsigned int, unsigned int, klee::_Identity<unsigned int>, std::less<unsigned int> >::Node"* %this, i64 0, i32 1, !dbg !1226
  %8 = load %"class.klee::ImmutableTree<unsigned int, unsigned int, klee::_Identity<unsigned int>, std::less<unsigned int> >::Node"** %7, align 8, !dbg !1226
  tail call fastcc void @_ZN4klee13ImmutableTreeIjjNS_9_IdentityIjEESt4lessIjEE4Node6increfEv(%"class.klee::ImmutableTree<unsigned int, unsigned int, klee::_Identity<unsigned int>, std::less<unsigned int> >::Node"* %8), !dbg !1226
  ret %"class.klee::ImmutableTree<unsigned int, unsigned int, klee::_Identity<unsigned int>, std::less<unsigned int> >::Node"* %8, !dbg !1227

; <label>:9                                       ; preds = %0
  %10 = load %"class.klee::ImmutableTree<unsigned int, unsigned int, klee::_Identity<unsigned int>, std::less<unsigned int> >::Node"** %1, align 8, !dbg !1228
  %11 = tail call fastcc %"class.klee::ImmutableTree<unsigned int, unsigned int, klee::_Identity<unsigned int>, std::less<unsigned int> >::Node"* @_ZN4klee13ImmutableTreeIjjNS_9_IdentityIjEESt4lessIjEE4Node6popMinERj(%"class.klee::ImmutableTree<unsigned 
  %12 = getelementptr inbounds %"class.klee::ImmutableTree<unsigned int, unsigned int, klee::_Identity<unsigned int>, std::less<unsigned int> >::Node"* %this, i64 0, i32 2, !dbg !1228
  %13 = getelementptr inbounds %"class.klee::ImmutableTree<unsigned int, unsigned int, klee::_Identity<unsigned int>, std::less<unsigned int> >::Node"* %this, i64 0, i32 1, !dbg !1228
  %14 = load %"class.klee::ImmutableTree<unsigned int, unsigned int, klee::_Identity<unsigned int>, std::less<unsigned int> >::Node"** %13, align 8, !dbg !1228
  tail call fastcc void @_ZN4klee13ImmutableTreeIjjNS_9_IdentityIjEESt4lessIjEE4Node6increfEv(%"class.klee::ImmutableTree<unsigned int, unsigned int, klee::_Identity<unsigned int>, std::less<unsigned int> >::Node"* %14), !dbg !1228
  %15 = tail call fastcc %"class.klee::ImmutableTree<unsigned int, unsigned int, klee::_Identity<unsigned int>, std::less<unsigned int> >::Node"* @_ZN4klee13ImmutableTreeIjjNS_9_IdentityIjEESt4lessIjEE4Node7balanceEPS6_RKjS7_(%"class.klee::ImmutableTree<
  ret %"class.klee::ImmutableTree<unsigned int, unsigned int, klee::_Identity<unsigned int>, std::less<unsigned int> >::Node"* %15, !dbg !1227
}

; Function Attrs: nobuiltin
declare noalias i8* @_Znwm(i64) #7

; Function Attrs: nounwind uwtable
define internal fastcc void @_ZN4klee13ImmutableTreeIjjNS_9_IdentityIjEESt4lessIjEE4NodeC2EPS6_S7_RKj(%"class.klee::ImmutableTree<unsigned int, unsigned int, klee::_Identity<unsigned int>, std::less<unsigned int> >::Node"* nocapture %this, %"class.klee::
  %1 = getelementptr inbounds %"class.klee::ImmutableTree<unsigned int, unsigned int, klee::_Identity<unsigned int>, std::less<unsigned int> >::Node"* %this, i64 0, i32 0, !dbg !1230
  store %"class.klee::ImmutableTree<unsigned int, unsigned int, klee::_Identity<unsigned int>, std::less<unsigned int> >::Node"* %_left, %"class.klee::ImmutableTree<unsigned int, unsigned int, klee::_Identity<unsigned int>, std::less<unsigned int> >::Nod
  %2 = getelementptr inbounds %"class.klee::ImmutableTree<unsigned int, unsigned int, klee::_Identity<unsigned int>, std::less<unsigned int> >::Node"* %this, i64 0, i32 1, !dbg !1230
  store %"class.klee::ImmutableTree<unsigned int, unsigned int, klee::_Identity<unsigned int>, std::less<unsigned int> >::Node"* %_right, %"class.klee::ImmutableTree<unsigned int, unsigned int, klee::_Identity<unsigned int>, std::less<unsigned int> >::No
  %3 = getelementptr inbounds %"class.klee::ImmutableTree<unsigned int, unsigned int, klee::_Identity<unsigned int>, std::less<unsigned int> >::Node"* %this, i64 0, i32 2, !dbg !1230
  %4 = load i32* %_value, align 4, !dbg !1230
  store i32 %4, i32* %3, align 4, !dbg !1230
  %5 = getelementptr inbounds %"class.klee::ImmutableTree<unsigned int, unsigned int, klee::_Identity<unsigned int>, std::less<unsigned int> >::Node"* %this, i64 0, i32 3, !dbg !1230
  %6 = load %"class.klee::ImmutableTree<unsigned int, unsigned int, klee::_Identity<unsigned int>, std::less<unsigned int> >::Node"** %1, align 8, !dbg !1231
  %7 = getelementptr inbounds %"class.klee::ImmutableTree<unsigned int, unsigned int, klee::_Identity<unsigned int>, std::less<unsigned int> >::Node"* %6, i64 0, i32 3, !dbg !1231
  %8 = load %"class.klee::ImmutableTree<unsigned int, unsigned int, klee::_Identity<unsigned int>, std::less<unsigned int> >::Node"** %2, align 8, !dbg !1231
  %9 = getelementptr inbounds %"class.klee::ImmutableTree<unsigned int, unsigned int, klee::_Identity<unsigned int>, std::less<unsigned int> >::Node"* %8, i64 0, i32 3, !dbg !1231
  %10 = tail call fastcc i32* @_ZSt3maxIjERKT_S2_S2_(i32* %7, i32* %9), !dbg !1231
  %11 = load i32* %10, align 4, !dbg !1231
  %12 = add i32 %11, 1, !dbg !1231
  store i32 %12, i32* %5, align 4, !dbg !1231
  %13 = getelementptr inbounds %"class.klee::ImmutableTree<unsigned int, unsigned int, klee::_Identity<unsigned int>, std::less<unsigned int> >::Node"* %this, i64 0, i32 4, !dbg !1231
  store i32 1, i32* %13, align 4, !dbg !1231
  %14 = load i64* @_ZN4klee13ImmutableTreeIjjNS_9_IdentityIjEESt4lessIjEE9allocatedE, align 8, !dbg !1232
  %15 = add i64 %14, 1, !dbg !1232
  store i64 %15, i64* @_ZN4klee13ImmutableTreeIjjNS_9_IdentityIjEESt4lessIjEE9allocatedE, align 8, !dbg !1232
  ret void, !dbg !1234
}

; Function Attrs: inlinehint nounwind readonly uwtable
define internal fastcc i32* @_ZSt3maxIjERKT_S2_S2_(i32* readonly %__a, i32* readonly %__b) #8 {
  %1 = load i32* %__a, align 4, !dbg !1235
  %2 = load i32* %__b, align 4, !dbg !1235
  %3 = icmp ult i32 %1, %2, !dbg !1235
  %__b.__a = select i1 %3, i32* %__b, i32* %__a, !dbg !1238
  ret i32* %__b.__a, !dbg !1239
}

; Function Attrs: nounwind uwtable
define internal fastcc void @_ZN4klee13ImmutableTreeIjjNS_9_IdentityIjEESt4lessIjEEC2ERKS5_(%"class.klee::ImmutableTree"* nocapture %this, %"class.klee::ImmutableTree<unsigned int, unsigned int, klee::_Identity<unsigned int>, std::less<unsigned int> >::N
  %1 = getelementptr inbounds %"class.klee::ImmutableTree"* %this, i64 0, i32 0, !dbg !1240
  tail call fastcc void @_ZN4klee13ImmutableTreeIjjNS_9_IdentityIjEESt4lessIjEE4Node6increfEv(%"class.klee::ImmutableTree<unsigned int, unsigned int, klee::_Identity<unsigned int>, std::less<unsigned int> >::Node"* %s.0.0.val), !dbg !1240
  store %"class.klee::ImmutableTree<unsigned int, unsigned int, klee::_Identity<unsigned int>, std::less<unsigned int> >::Node"* %s.0.0.val, %"class.klee::ImmutableTree<unsigned int, unsigned int, klee::_Identity<unsigned int>, std::less<unsigned int> >:
  ret void, !dbg !1242
}

; Function Attrs: nounwind uwtable
define internal fastcc void @_ZN4klee13ImmutableTreeIjjNS_9_IdentityIjEESt4lessIjEEaSERKS5_(%"class.klee::ImmutableTree"* nocapture %this, %"class.klee::ImmutableTree<unsigned int, unsigned int, klee::_Identity<unsigned int>, std::less<unsigned int> >::N
  tail call fastcc void @_ZN4klee13ImmutableTreeIjjNS_9_IdentityIjEESt4lessIjEE4Node6increfEv(%"class.klee::ImmutableTree<unsigned int, unsigned int, klee::_Identity<unsigned int>, std::less<unsigned int> >::Node"* %s.0.0.val), !dbg !1243
  %1 = getelementptr inbounds %"class.klee::ImmutableTree"* %this, i64 0, i32 0, !dbg !1245
  %2 = load %"class.klee::ImmutableTree<unsigned int, unsigned int, klee::_Identity<unsigned int>, std::less<unsigned int> >::Node"** %1, align 8, !dbg !1245
  tail call fastcc void @_ZN4klee13ImmutableTreeIjjNS_9_IdentityIjEESt4lessIjEE4Node6decrefEv(%"class.klee::ImmutableTree<unsigned int, unsigned int, klee::_Identity<unsigned int>, std::less<unsigned int> >::Node"* %2), !dbg !1245
  store %"class.klee::ImmutableTree<unsigned int, unsigned int, klee::_Identity<unsigned int>, std::less<unsigned int> >::Node"* %s.0.0.val, %"class.klee::ImmutableTree<unsigned int, unsigned int, klee::_Identity<unsigned int>, std::less<unsigned int> >:
  ret void
}

; Function Attrs: nounwind uwtable
define internal fastcc void @_ZNK4klee13ImmutableTreeIjjNS_9_IdentityIjEESt4lessIjEE6insertERKj(%"class.klee::ImmutableTree"* noalias nocapture sret %agg.result, %"class.klee::ImmutableTree<unsigned int, unsigned int, klee::_Identity<unsigned int>, std::
  %1 = tail call fastcc %"class.klee::ImmutableTree<unsigned int, unsigned int, klee::_Identity<unsigned int>, std::less<unsigned int> >::Node"* @_ZN4klee13ImmutableTreeIjjNS_9_IdentityIjEESt4lessIjEE4Node6insertERKj(%"class.klee::ImmutableTree<unsigned 
  tail call fastcc void @_ZN4klee13ImmutableTreeIjjNS_9_IdentityIjEESt4lessIjEEC2EPNS5_4NodeE(%"class.klee::ImmutableTree"* %agg.result, %"class.klee::ImmutableTree<unsigned int, unsigned int, klee::_Identity<unsigned int>, std::less<unsigned int> >::Nod
  ret void, !dbg !1247
}

; Function Attrs: nounwind uwtable
define internal fastcc %"class.klee::ImmutableTree<unsigned int, unsigned int, klee::_Identity<unsigned int>, std::less<unsigned int> >::Node"* @_ZN4klee13ImmutableTreeIjjNS_9_IdentityIjEESt4lessIjEE4Node6insertERKj(%"class.klee::ImmutableTree<unsigned i
  %1 = tail call fastcc zeroext i1 @_ZN4klee13ImmutableTreeIjjNS_9_IdentityIjEESt4lessIjEE4Node12isTerminatorEv(%"class.klee::ImmutableTree<unsigned int, unsigned int, klee::_Identity<unsigned int>, std::less<unsigned int> >::Node"* %this), !dbg !1249
  br i1 %1, label %2, label %5, !dbg !1249

; <label>:2                                       ; preds = %0
  %3 = tail call noalias i8* @_Znwm(i64 32) #17, !dbg !1251
  %4 = bitcast i8* %3 to %"class.klee::ImmutableTree<unsigned int, unsigned int, klee::_Identity<unsigned int>, std::less<unsigned int> >::Node"*, !dbg !1251
  tail call fastcc void @_ZN4klee13ImmutableTreeIjjNS_9_IdentityIjEESt4lessIjEE4Node6increfEv(%"class.klee::ImmutableTree<unsigned int, unsigned int, klee::_Identity<unsigned int>, std::less<unsigned int> >::Node"* @_ZN4klee13ImmutableTreeIjjNS_9_Identit
  tail call fastcc void @_ZN4klee13ImmutableTreeIjjNS_9_IdentityIjEESt4lessIjEE4Node6increfEv(%"class.klee::ImmutableTree<unsigned int, unsigned int, klee::_Identity<unsigned int>, std::less<unsigned int> >::Node"* @_ZN4klee13ImmutableTreeIjjNS_9_Identit
  tail call fastcc void @_ZN4klee13ImmutableTreeIjjNS_9_IdentityIjEESt4lessIjEE4NodeC2EPS6_S7_RKj(%"class.klee::ImmutableTree<unsigned int, unsigned int, klee::_Identity<unsigned int>, std::less<unsigned int> >::Node"* %4, %"class.klee::ImmutableTree<uns
  br label %25, !dbg !1251

; <label>:5                                       ; preds = %0
  %6 = getelementptr inbounds %"class.klee::ImmutableTree<unsigned int, unsigned int, klee::_Identity<unsigned int>, std::less<unsigned int> >::Node"* %this, i64 0, i32 2, !dbg !1253
  %v.val = load i32* %v, align 4
  %.val = load i32* %6, align 4
  %7 = call fastcc zeroext i1 @_ZNKSt4lessIjEclERKjS2_(i32 %v.val, i32 %.val)
  br i1 %7, label %8, label %15, !dbg !1253

; <label>:8                                       ; preds = %5
  %9 = getelementptr inbounds %"class.klee::ImmutableTree<unsigned int, unsigned int, klee::_Identity<unsigned int>, std::less<unsigned int> >::Node"* %this, i64 0, i32 0, !dbg !1256
  %10 = load %"class.klee::ImmutableTree<unsigned int, unsigned int, klee::_Identity<unsigned int>, std::less<unsigned int> >::Node"** %9, align 8, !dbg !1256
  %11 = tail call fastcc %"class.klee::ImmutableTree<unsigned int, unsigned int, klee::_Identity<unsigned int>, std::less<unsigned int> >::Node"* @_ZN4klee13ImmutableTreeIjjNS_9_IdentityIjEESt4lessIjEE4Node6insertERKj(%"class.klee::ImmutableTree<unsigned
  %12 = getelementptr inbounds %"class.klee::ImmutableTree<unsigned int, unsigned int, klee::_Identity<unsigned int>, std::less<unsigned int> >::Node"* %this, i64 0, i32 1, !dbg !1256
  %13 = load %"class.klee::ImmutableTree<unsigned int, unsigned int, klee::_Identity<unsigned int>, std::less<unsigned int> >::Node"** %12, align 8, !dbg !1256
  tail call fastcc void @_ZN4klee13ImmutableTreeIjjNS_9_IdentityIjEESt4lessIjEE4Node6increfEv(%"class.klee::ImmutableTree<unsigned int, unsigned int, klee::_Identity<unsigned int>, std::less<unsigned int> >::Node"* %13), !dbg !1256
  %14 = tail call fastcc %"class.klee::ImmutableTree<unsigned int, unsigned int, klee::_Identity<unsigned int>, std::less<unsigned int> >::Node"* @_ZN4klee13ImmutableTreeIjjNS_9_IdentityIjEESt4lessIjEE4Node7balanceEPS6_RKjS7_(%"class.klee::ImmutableTree<
  br label %25, !dbg !1256

; <label>:15                                      ; preds = %5
  %.val1 = load i32* %6, align 4
  %v.val2 = load i32* %v, align 4
  %16 = call fastcc zeroext i1 @_ZNKSt4lessIjEclERKjS2_(i32 %.val1, i32 %v.val2)
  br i1 %16, label %17, label %24, !dbg !1258

; <label>:17                                      ; preds = %15
  %18 = getelementptr inbounds %"class.klee::ImmutableTree<unsigned int, unsigned int, klee::_Identity<unsigned int>, std::less<unsigned int> >::Node"* %this, i64 0, i32 0, !dbg !1260
  %19 = load %"class.klee::ImmutableTree<unsigned int, unsigned int, klee::_Identity<unsigned int>, std::less<unsigned int> >::Node"** %18, align 8, !dbg !1260
  tail call fastcc void @_ZN4klee13ImmutableTreeIjjNS_9_IdentityIjEESt4lessIjEE4Node6increfEv(%"class.klee::ImmutableTree<unsigned int, unsigned int, klee::_Identity<unsigned int>, std::less<unsigned int> >::Node"* %19), !dbg !1260
  %20 = getelementptr inbounds %"class.klee::ImmutableTree<unsigned int, unsigned int, klee::_Identity<unsigned int>, std::less<unsigned int> >::Node"* %this, i64 0, i32 1, !dbg !1260
  %21 = load %"class.klee::ImmutableTree<unsigned int, unsigned int, klee::_Identity<unsigned int>, std::less<unsigned int> >::Node"** %20, align 8, !dbg !1260
  %22 = tail call fastcc %"class.klee::ImmutableTree<unsigned int, unsigned int, klee::_Identity<unsigned int>, std::less<unsigned int> >::Node"* @_ZN4klee13ImmutableTreeIjjNS_9_IdentityIjEESt4lessIjEE4Node6insertERKj(%"class.klee::ImmutableTree<unsigned
  %23 = tail call fastcc %"class.klee::ImmutableTree<unsigned int, unsigned int, klee::_Identity<unsigned int>, std::less<unsigned int> >::Node"* @_ZN4klee13ImmutableTreeIjjNS_9_IdentityIjEESt4lessIjEE4Node7balanceEPS6_RKjS7_(%"class.klee::ImmutableTree<
  br label %25, !dbg !1260

; <label>:24                                      ; preds = %15
  tail call fastcc void @_ZN4klee13ImmutableTreeIjjNS_9_IdentityIjEESt4lessIjEE4Node6increfEv(%"class.klee::ImmutableTree<unsigned int, unsigned int, klee::_Identity<unsigned int>, std::less<unsigned int> >::Node"* %this), !dbg !1262
  br label %25, !dbg !1262

; <label>:25                                      ; preds = %24, %17, %8, %2
  %.0 = phi %"class.klee::ImmutableTree<unsigned int, unsigned int, klee::_Identity<unsigned int>, std::less<unsigned int> >::Node"* [ %4, %2 ], [ %14, %8 ], [ %23, %17 ], [ %this, %24 ]
  ret %"class.klee::ImmutableTree<unsigned int, unsigned int, klee::_Identity<unsigned int>, std::less<unsigned int> >::Node"* %.0, !dbg !1264
}

; Function Attrs: nounwind uwtable
define internal fastcc void @_ZN4klee13ImmutableTreeIjjNS_9_IdentityIjEESt4lessIjEEC2Ev(%"class.klee::ImmutableTree"* nocapture %this) unnamed_addr #1 align 2 {
  %1 = getelementptr inbounds %"class.klee::ImmutableTree"* %this, i64 0, i32 0, !dbg !1265
  tail call fastcc void @_ZN4klee13ImmutableTreeIjjNS_9_IdentityIjEESt4lessIjEE4Node6increfEv(%"class.klee::ImmutableTree<unsigned int, unsigned int, klee::_Identity<unsigned int>, std::less<unsigned int> >::Node"* @_ZN4klee13ImmutableTreeIjjNS_9_Identit
  store %"class.klee::ImmutableTree<unsigned int, unsigned int, klee::_Identity<unsigned int>, std::less<unsigned int> >::Node"* @_ZN4klee13ImmutableTreeIjjNS_9_IdentityIjEESt4lessIjEE4Node10terminatorE, %"class.klee::ImmutableTree<unsigned int, unsigned
  ret void, !dbg !1267
}

; Function Attrs: nounwind readnone uwtable
define internal fastcc zeroext i1 @_ZN4klee10FixedStackIPNS_13ImmutableTreeIjjNS_9_IdentityIjEESt4lessIjEE4NodeEE5emptyEv(i32 %this.0.0.val) #0 align 2 {
  %1 = icmp eq i32 %this.0.0.val, 0, !dbg !1268
  ret i1 %1, !dbg !1268
}

; Function Attrs: nounwind uwtable
define internal fastcc void @_ZN4klee10FixedStackIPNS_13ImmutableTreeIjjNS_9_IdentityIjEESt4lessIjEE4NodeEE9push_backERKS8_(%"class.klee::FixedStack"* nocapture %this, %"class.klee::ImmutableTree<unsigned int, unsigned int, klee::_Identity<unsigned int>,
  %1 = getelementptr inbounds %"class.klee::FixedStack"* %this, i64 0, i32 0, !dbg !1269
  %2 = load i32* %1, align 4, !dbg !1269
  %3 = add i32 %2, 1, !dbg !1269
  store i32 %3, i32* %1, align 4, !dbg !1269
  %4 = zext i32 %2 to i64, !dbg !1269
  %5 = getelementptr inbounds %"class.klee::FixedStack"* %this, i64 0, i32 2, !dbg !1269
  %6 = load %"class.klee::ImmutableTree<unsigned int, unsigned int, klee::_Identity<unsigned int>, std::less<unsigned int> >::Node"*** %5, align 8, !dbg !1269
  %7 = getelementptr inbounds %"class.klee::ImmutableTree<unsigned int, unsigned int, klee::_Identity<unsigned int>, std::less<unsigned int> >::Node"** %6, i64 %4, !dbg !1269
  store %"class.klee::ImmutableTree<unsigned int, unsigned int, klee::_Identity<unsigned int>, std::less<unsigned int> >::Node"* %elt.val, %"class.klee::ImmutableTree<unsigned int, unsigned int, klee::_Identity<unsigned int>, std::less<unsigned int> >::N
  ret void, !dbg !1269
}

; Function Attrs: nounwind readnone uwtable
define internal fastcc %"class.klee::ImmutableTree<unsigned int, unsigned int, klee::_Identity<unsigned int>, std::less<unsigned int> >::Node"** @_ZN4klee10FixedStackIPNS_13ImmutableTreeIjjNS_9_IdentityIjEESt4lessIjEE4NodeEE4backEv(i32 %this.0.0.val, %"c
  %1 = add i32 %this.0.0.val, -1, !dbg !1270
  %2 = zext i32 %1 to i64, !dbg !1270
  %3 = getelementptr inbounds %"class.klee::ImmutableTree<unsigned int, unsigned int, klee::_Identity<unsigned int>, std::less<unsigned int> >::Node"** %this.0.2.val, i64 %2, !dbg !1270
  ret %"class.klee::ImmutableTree<unsigned int, unsigned int, klee::_Identity<unsigned int>, std::less<unsigned int> >::Node"** %3, !dbg !1270
}

; Function Attrs: nounwind uwtable
define internal fastcc void @_ZN4klee10FixedStackIPNS_13ImmutableTreeIjjNS_9_IdentityIjEESt4lessIjEE4NodeEE8pop_backEv(%"class.klee::FixedStack"* nocapture %this) #1 align 2 {
  %1 = getelementptr inbounds %"class.klee::FixedStack"* %this, i64 0, i32 0, !dbg !1271
  %2 = load i32* %1, align 4, !dbg !1271
  %3 = add i32 %2, -1, !dbg !1271
  store i32 %3, i32* %1, align 4, !dbg !1271
  ret void, !dbg !1271
}

; Function Attrs: nounwind uwtable
define internal fastcc zeroext i1 @_ZN4klee10FixedStackIPNS_13ImmutableTreeIjjNS_9_IdentityIjEESt4lessIjEE4NodeEEeqERKS9_(%"class.klee::FixedStack"* nocapture readonly %this, %"class.klee::FixedStack"* nocapture readonly %b) #1 align 2 {
  %1 = getelementptr inbounds %"class.klee::FixedStack"* %this, i64 0, i32 0, !dbg !1272
  %2 = load i32* %1, align 4, !dbg !1272
  %3 = getelementptr inbounds %"class.klee::FixedStack"* %b, i64 0, i32 0, !dbg !1272
  %4 = load i32* %3, align 4, !dbg !1272
  %5 = icmp eq i32 %2, %4, !dbg !1272
  br i1 %5, label %6, label %15, !dbg !1272

; <label>:6                                       ; preds = %0
  %7 = getelementptr inbounds %"class.klee::FixedStack"* %this, i64 0, i32 2, !dbg !1273
  %8 = load %"class.klee::ImmutableTree<unsigned int, unsigned int, klee::_Identity<unsigned int>, std::less<unsigned int> >::Node"*** %7, align 8, !dbg !1273
  %9 = load i32* %1, align 4, !dbg !1273
  %10 = zext i32 %9 to i64, !dbg !1273
  %11 = getelementptr inbounds %"class.klee::ImmutableTree<unsigned int, unsigned int, klee::_Identity<unsigned int>, std::less<unsigned int> >::Node"** %8, i64 %10, !dbg !1273
  %12 = getelementptr inbounds %"class.klee::FixedStack"* %b, i64 0, i32 2, !dbg !1273
  %13 = load %"class.klee::ImmutableTree<unsigned int, unsigned int, klee::_Identity<unsigned int>, std::less<unsigned int> >::Node"*** %12, align 8, !dbg !1273
  %14 = tail call fastcc zeroext i1 @_ZSt5equalIPPN4klee13ImmutableTreeIjjNS0_9_IdentityIjEESt4lessIjEE4NodeES9_EbT_SA_T0_(%"class.klee::ImmutableTree<unsigned int, unsigned int, klee::_Identity<unsigned int>, std::less<unsigned int> >::Node"** %8, %"cla
  br label %15

; <label>:15                                      ; preds = %6, %0
  %16 = phi i1 [ false, %0 ], [ %14, %6 ]
  ret i1 %16, !dbg !1274
}

; Function Attrs: inlinehint nounwind uwtable
define internal fastcc zeroext i1 @_ZSt5equalIPPN4klee13ImmutableTreeIjjNS0_9_IdentityIjEESt4lessIjEE4NodeES9_EbT_SA_T0_(%"class.klee::ImmutableTree<unsigned int, unsigned int, klee::_Identity<unsigned int>, std::less<unsigned int> >::Node"** readnone %_
  %1 = tail call fastcc %"class.klee::ImmutableTree<unsigned int, unsigned int, klee::_Identity<unsigned int>, std::less<unsigned int> >::Node"** @_ZSt12__niter_baseIPPN4klee13ImmutableTreeIjjNS0_9_IdentityIjEESt4lessIjEE4NodeEENSt11_Niter_baseIT_E13iter
  %2 = tail call fastcc %"class.klee::ImmutableTree<unsigned int, unsigned int, klee::_Identity<unsigned int>, std::less<unsigned int> >::Node"** @_ZSt12__niter_baseIPPN4klee13ImmutableTreeIjjNS0_9_IdentityIjEESt4lessIjEE4NodeEENSt11_Niter_baseIT_E13iter
  %3 = tail call fastcc %"class.klee::ImmutableTree<unsigned int, unsigned int, klee::_Identity<unsigned int>, std::less<unsigned int> >::Node"** @_ZSt12__niter_baseIPPN4klee13ImmutableTreeIjjNS0_9_IdentityIjEESt4lessIjEE4NodeEENSt11_Niter_baseIT_E13iter
  %4 = tail call fastcc zeroext i1 @_ZSt11__equal_auxIPPN4klee13ImmutableTreeIjjNS0_9_IdentityIjEESt4lessIjEE4NodeES9_EbT_SA_T0_(%"class.klee::ImmutableTree<unsigned int, unsigned int, klee::_Identity<unsigned int>, std::less<unsigned int> >::Node"** %1,
  ret i1 %4, !dbg !1279
}

; Function Attrs: inlinehint nounwind uwtable
define internal fastcc zeroext i1 @_ZSt11__equal_auxIPPN4klee13ImmutableTreeIjjNS0_9_IdentityIjEESt4lessIjEE4NodeES9_EbT_SA_T0_(%"class.klee::ImmutableTree<unsigned int, unsigned int, klee::_Identity<unsigned int>, std::less<unsigned int> >::Node"** %__f
  %1 = tail call fastcc zeroext i1 @_ZNSt7__equalILb1EE5equalIPN4klee13ImmutableTreeIjjNS2_9_IdentityIjEESt4lessIjEE4NodeEEEbPKT_SD_SD_(%"class.klee::ImmutableTree<unsigned int, unsigned int, klee::_Identity<unsigned int>, std::less<unsigned int> >::Node
  ret i1 %1, !dbg !1280
}

; Function Attrs: inlinehint nounwind readnone uwtable
define internal fastcc %"class.klee::ImmutableTree<unsigned int, unsigned int, klee::_Identity<unsigned int>, std::less<unsigned int> >::Node"** @_ZSt12__niter_baseIPPN4klee13ImmutableTreeIjjNS0_9_IdentityIjEESt4lessIjEE4NodeEENSt11_Niter_baseIT_E13itera
  ret %"class.klee::ImmutableTree<unsigned int, unsigned int, klee::_Identity<unsigned int>, std::less<unsigned int> >::Node"** %__it, !dbg !1282
}

; Function Attrs: nounwind uwtable
define internal fastcc zeroext i1 @_ZNSt7__equalILb1EE5equalIPN4klee13ImmutableTreeIjjNS2_9_IdentityIjEESt4lessIjEE4NodeEEEbPKT_SD_SD_(%"class.klee::ImmutableTree<unsigned int, unsigned int, klee::_Identity<unsigned int>, std::less<unsigned int> >::Node"
  tail call void @klee_div_zero_check(i64 8) #5, !dbg !1283
  %1 = icmp eq %"class.klee::ImmutableTree<unsigned int, unsigned int, klee::_Identity<unsigned int>, std::less<unsigned int> >::Node"** %__last1, %__first1, !dbg !1283
  br i1 %1, label %10, label %2, !dbg !1283

; <label>:2                                       ; preds = %0
  %3 = ptrtoint %"class.klee::ImmutableTree<unsigned int, unsigned int, klee::_Identity<unsigned int>, std::less<unsigned int> >::Node"** %__last1 to i64, !dbg !1283
  %4 = ptrtoint %"class.klee::ImmutableTree<unsigned int, unsigned int, klee::_Identity<unsigned int>, std::less<unsigned int> >::Node"** %__first1 to i64, !dbg !1283
  %5 = sub i64 %3, %4, !dbg !1283
  %6 = bitcast %"class.klee::ImmutableTree<unsigned int, unsigned int, klee::_Identity<unsigned int>, std::less<unsigned int> >::Node"** %__first1 to i8*, !dbg !1285
  %7 = bitcast %"class.klee::ImmutableTree<unsigned int, unsigned int, klee::_Identity<unsigned int>, std::less<unsigned int> >::Node"** %__first2 to i8*, !dbg !1285
  %8 = tail call fastcc i32 @memcmp(i8* %6, i8* %7, i64 %5) #5, !dbg !1285
  %9 = icmp eq i32 %8, 0, !dbg !1285
  br label %10, !dbg !1285

; <label>:10                                      ; preds = %0, %2
  %.0 = phi i1 [ %9, %2 ], [ true, %0 ]
  ret i1 %.0, !dbg !1286
}

; Function Attrs: nounwind uwtable
define internal fastcc void @_ZNK4klee13ImmutableTreeIjjNS_9_IdentityIjEESt4lessIjEE11upper_boundERKj(%"class.klee::ImmutableTree<unsigned int, unsigned int, klee::_Identity<unsigned int>, std::less<unsigned int> >::iterator"* noalias nocapture sret %agg
  %end = alloca %"class.klee::ImmutableTree<unsigned int, unsigned int, klee::_Identity<unsigned int>, std::less<unsigned int> >::iterator", align 8
  %1 = getelementptr inbounds %"class.klee::ImmutableTree"* %this, i64 0, i32 0, !dbg !1287
  %2 = load %"class.klee::ImmutableTree<unsigned int, unsigned int, klee::_Identity<unsigned int>, std::less<unsigned int> >::Node"** %1, align 8, !dbg !1287
  call fastcc void @_ZN4klee13ImmutableTreeIjjNS_9_IdentityIjEESt4lessIjEE8iteratorC2EPNS5_4NodeEb(%"class.klee::ImmutableTree<unsigned int, unsigned int, klee::_Identity<unsigned int>, std::less<unsigned int> >::iterator"* %end, %"class.klee::ImmutableT
  tail call fastcc void @_ZNK4klee13ImmutableTreeIjjNS_9_IdentityIjEESt4lessIjEE11lower_boundERKj(%"class.klee::ImmutableTree<unsigned int, unsigned int, klee::_Identity<unsigned int>, std::less<unsigned int> >::iterator"* sret %agg.result, %"class.klee:
  %3 = call fastcc zeroext i1 @_ZN4klee13ImmutableTreeIjjNS_9_IdentityIjEESt4lessIjEE8iteratorneERKS6_(%"class.klee::ImmutableTree<unsigned int, unsigned int, klee::_Identity<unsigned int>, std::less<unsigned int> >::iterator"* %agg.result, %"class.klee:
  br i1 %3, label %4, label %8, !dbg !1289

; <label>:4                                       ; preds = %0
  %5 = tail call fastcc i32* @_ZN4klee13ImmutableTreeIjjNS_9_IdentityIjEESt4lessIjEE8iteratordeEv(%"class.klee::ImmutableTree<unsigned int, unsigned int, klee::_Identity<unsigned int>, std::less<unsigned int> >::iterator"* %agg.result), !dbg !1291
  %key.val = load i32* %key, align 4
  %.val = load i32* %5, align 4
  %6 = call fastcc zeroext i1 @_ZNKSt4lessIjEclERKjS2_(i32 %key.val, i32 %.val)
  br i1 %6, label %8, label %7, !dbg !1291

; <label>:7                                       ; preds = %4
  tail call fastcc void @_ZN4klee13ImmutableTreeIjjNS_9_IdentityIjEESt4lessIjEE8iteratorppEv(%"class.klee::ImmutableTree<unsigned int, unsigned int, klee::_Identity<unsigned int>, std::less<unsigned int> >::iterator"* %agg.result), !dbg !1292
  br label %8, !dbg !1292

; <label>:8                                       ; preds = %0, %4, %7
  call fastcc void @_ZN4klee13ImmutableTreeIjjNS_9_IdentityIjEESt4lessIjEE8iteratorD2Ev(%"class.klee::ImmutableTree<unsigned int, unsigned int, klee::_Identity<unsigned int>, std::less<unsigned int> >::iterator"* %end), !dbg !1293
  ret void, !dbg !1293
}

; Function Attrs: nounwind uwtable
define internal fastcc void @_ZN4klee13ImmutableTreeIjjNS_9_IdentityIjEESt4lessIjEE8iteratorC2EPNS5_4NodeEb(%"class.klee::ImmutableTree<unsigned int, unsigned int, klee::_Identity<unsigned int>, std::less<unsigned int> >::iterator"* nocapture %this, %"cl
  %1 = getelementptr inbounds %"class.klee::ImmutableTree<unsigned int, unsigned int, klee::_Identity<unsigned int>, std::less<unsigned int> >::iterator"* %this, i64 0, i32 0, !dbg !1294
  tail call fastcc void @_ZN4klee13ImmutableTreeIjjNS_9_IdentityIjEESt4lessIjEE4Node6increfEv(%"class.klee::ImmutableTree<unsigned int, unsigned int, klee::_Identity<unsigned int>, std::less<unsigned int> >::Node"* %_root), !dbg !1295
  store %"class.klee::ImmutableTree<unsigned int, unsigned int, klee::_Identity<unsigned int>, std::less<unsigned int> >::Node"* %_root, %"class.klee::ImmutableTree<unsigned int, unsigned int, klee::_Identity<unsigned int>, std::less<unsigned int> >::Nod
  %2 = getelementptr inbounds %"class.klee::ImmutableTree<unsigned int, unsigned int, klee::_Identity<unsigned int>, std::less<unsigned int> >::iterator"* %this, i64 0, i32 1, !dbg !1295
  %3 = getelementptr inbounds %"class.klee::ImmutableTree<unsigned int, unsigned int, klee::_Identity<unsigned int>, std::less<unsigned int> >::Node"* %_root, i64 0, i32 3, !dbg !1295
  %4 = load i32* %3, align 4, !dbg !1295
  tail call fastcc void @_ZN4klee10FixedStackIPNS_13ImmutableTreeIjjNS_9_IdentityIjEESt4lessIjEE4NodeEEC2Ej(%"class.klee::FixedStack"* %2, i32 %4), !dbg !1295
  br i1 %atBeginning, label %5, label %.loopexit, !dbg !1296

; <label>:5                                       ; preds = %0
  %storemerge1 = load %"class.klee::ImmutableTree<unsigned int, unsigned int, klee::_Identity<unsigned int>, std::less<unsigned int> >::Node"** %1, align 8, !dbg !1299
  %6 = tail call fastcc zeroext i1 @_ZN4klee13ImmutableTreeIjjNS_9_IdentityIjEESt4lessIjEE4Node12isTerminatorEv(%"class.klee::ImmutableTree<unsigned int, unsigned int, klee::_Identity<unsigned int>, std::less<unsigned int> >::Node"* %storemerge1), !dbg !
  br i1 %6, label %.loopexit, label %.lr.ph, !dbg !1299

.lr.ph:                                           ; preds = %5, %.lr.ph
  %n.0 = phi %"class.klee::ImmutableTree<unsigned int, unsigned int, klee::_Identity<unsigned int>, std::less<unsigned int> >::Node"* [ %storemerge, %.lr.ph ], [ %storemerge1, %5 ]
  call fastcc void @_ZN4klee10FixedStackIPNS_13ImmutableTreeIjjNS_9_IdentityIjEESt4lessIjEE4NodeEE9push_backERKS8_(%"class.klee::FixedStack"* %2, %"class.klee::ImmutableTree<unsigned int, unsigned int, klee::_Identity<unsigned int>, std::less<unsigned in
  %7 = getelementptr inbounds %"class.klee::ImmutableTree<unsigned int, unsigned int, klee::_Identity<unsigned int>, std::less<unsigned int> >::Node"* %n.0, i64 0, i32 0, !dbg !1299
  %storemerge = load %"class.klee::ImmutableTree<unsigned int, unsigned int, klee::_Identity<unsigned int>, std::less<unsigned int> >::Node"** %7, align 8, !dbg !1299
  %8 = tail call fastcc zeroext i1 @_ZN4klee13ImmutableTreeIjjNS_9_IdentityIjEESt4lessIjEE4Node12isTerminatorEv(%"class.klee::ImmutableTree<unsigned int, unsigned int, klee::_Identity<unsigned int>, std::less<unsigned int> >::Node"* %storemerge), !dbg !1
  br i1 %8, label %.loopexit, label %.lr.ph, !dbg !1299

.loopexit:                                        ; preds = %.lr.ph, %5, %0
  ret void, !dbg !1302
}

; Function Attrs: nounwind uwtable
define internal fastcc void @_ZNK4klee13ImmutableTreeIjjNS_9_IdentityIjEESt4lessIjEE11lower_boundERKj(%"class.klee::ImmutableTree<unsigned int, unsigned int, klee::_Identity<unsigned int>, std::less<unsigned int> >::iterator"* noalias nocapture sret %agg
  %1 = getelementptr inbounds %"class.klee::ImmutableTree"* %this, i64 0, i32 0, !dbg !1303
  %2 = load %"class.klee::ImmutableTree<unsigned int, unsigned int, klee::_Identity<unsigned int>, std::less<unsigned int> >::Node"** %1, align 8, !dbg !1303
  tail call fastcc void @_ZN4klee13ImmutableTreeIjjNS_9_IdentityIjEESt4lessIjEE8iteratorC2EPNS5_4NodeEb(%"class.klee::ImmutableTree<unsigned int, unsigned int, klee::_Identity<unsigned int>, std::less<unsigned int> >::iterator"* %agg.result, %"class.klee
  %3 = load %"class.klee::ImmutableTree<unsigned int, unsigned int, klee::_Identity<unsigned int>, std::less<unsigned int> >::Node"** %1, align 8, !dbg !1304
  %4 = tail call fastcc zeroext i1 @_ZN4klee13ImmutableTreeIjjNS_9_IdentityIjEESt4lessIjEE4Node12isTerminatorEv(%"class.klee::ImmutableTree<unsigned int, unsigned int, klee::_Identity<unsigned int>, std::less<unsigned int> >::Node"* %3), !dbg !1304
  %5 = getelementptr inbounds %"class.klee::ImmutableTree<unsigned int, unsigned int, klee::_Identity<unsigned int>, std::less<unsigned int> >::iterator"* %agg.result, i64 0, i32 1, !dbg !1306
  br i1 %4, label %._crit_edge, label %.lr.ph, !dbg !1304

.lr.ph:                                           ; preds = %0, %.backedge
  %root.0 = phi %"class.klee::ImmutableTree<unsigned int, unsigned int, klee::_Identity<unsigned int>, std::less<unsigned int> >::Node"* [ %storemerge, %.backedge ], [ %3, %0 ]
  call fastcc void @_ZN4klee10FixedStackIPNS_13ImmutableTreeIjjNS_9_IdentityIjEESt4lessIjEE4NodeEE9push_backERKS8_(%"class.klee::FixedStack"* %5, %"class.klee::ImmutableTree<unsigned int, unsigned int, klee::_Identity<unsigned int>, std::less<unsigned in
  %6 = getelementptr inbounds %"class.klee::ImmutableTree<unsigned int, unsigned int, klee::_Identity<unsigned int>, std::less<unsigned int> >::Node"* %root.0, i64 0, i32 2, !dbg !1308
  %k.val = load i32* %k, align 4
  %.val = load i32* %6, align 4
  %7 = call fastcc zeroext i1 @_ZNKSt4lessIjEclERKjS2_(i32 %k.val, i32 %.val)
  br i1 %7, label %8, label %10, !dbg !1308

; <label>:8                                       ; preds = %.lr.ph
  %9 = getelementptr inbounds %"class.klee::ImmutableTree<unsigned int, unsigned int, klee::_Identity<unsigned int>, std::less<unsigned int> >::Node"* %root.0, i64 0, i32 0, !dbg !1311
  br label %.backedge, !dbg !1313

; <label>:10                                      ; preds = %.lr.ph
  %.val2 = load i32* %6, align 4
  %k.val3 = load i32* %k, align 4
  %11 = call fastcc zeroext i1 @_ZNKSt4lessIjEclERKjS2_(i32 %.val2, i32 %k.val3)
  br i1 %11, label %12, label %.loopexit, !dbg !1314

; <label>:12                                      ; preds = %10
  %13 = getelementptr inbounds %"class.klee::ImmutableTree<unsigned int, unsigned int, klee::_Identity<unsigned int>, std::less<unsigned int> >::Node"* %root.0, i64 0, i32 1, !dbg !1316
  br label %.backedge

.backedge:                                        ; preds = %12, %8
  %storemerge.in = phi %"class.klee::ImmutableTree<unsigned int, unsigned int, klee::_Identity<unsigned int>, std::less<unsigned int> >::Node"** [ %13, %12 ], [ %9, %8 ]
  %storemerge = load %"class.klee::ImmutableTree<unsigned int, unsigned int, klee::_Identity<unsigned int>, std::less<unsigned int> >::Node"** %storemerge.in, align 8, !dbg !1316
  %14 = tail call fastcc zeroext i1 @_ZN4klee13ImmutableTreeIjjNS_9_IdentityIjEESt4lessIjEE4Node12isTerminatorEv(%"class.klee::ImmutableTree<unsigned int, unsigned int, klee::_Identity<unsigned int>, std::less<unsigned int> >::Node"* %storemerge), !dbg !
  br i1 %14, label %._crit_edge, label %.lr.ph, !dbg !1304

._crit_edge:                                      ; preds = %.backedge, %0
  %.idx = getelementptr %"class.klee::FixedStack"* %5, i64 0, i32 0
  %.idx.val = load i32* %.idx, align 8
  %15 = tail call fastcc zeroext i1 @_ZN4klee10FixedStackIPNS_13ImmutableTreeIjjNS_9_IdentityIjEESt4lessIjEE4NodeEE5emptyEv(i32 %.idx.val)
  br i1 %15, label %.loopexit, label %16, !dbg !1306

; <label>:16                                      ; preds = %._crit_edge
  %.idx6.val = load i32* %.idx, align 8
  %.idx7 = getelementptr %"class.klee::ImmutableTree<unsigned int, unsigned int, klee::_Identity<unsigned int>, std::less<unsigned int> >::iterator"* %agg.result, i64 0, i32 1, i32 2
  %.idx7.val = load %"class.klee::ImmutableTree<unsigned int, unsigned int, klee::_Identity<unsigned int>, std::less<unsigned int> >::Node"*** %.idx7, align 8
  %17 = tail call fastcc %"class.klee::ImmutableTree<unsigned int, unsigned int, klee::_Identity<unsigned int>, std::less<unsigned int> >::Node"** @_ZN4klee10FixedStackIPNS_13ImmutableTreeIjjNS_9_IdentityIjEESt4lessIjEE4NodeEE4backEv(i32 %.idx6.val, %"cl
  %18 = load %"class.klee::ImmutableTree<unsigned int, unsigned int, klee::_Identity<unsigned int>, std::less<unsigned int> >::Node"** %17, align 8, !dbg !1318
  %19 = getelementptr inbounds %"class.klee::ImmutableTree<unsigned int, unsigned int, klee::_Identity<unsigned int>, std::less<unsigned int> >::Node"* %18, i64 0, i32 2, !dbg !1320
  %.val4 = load i32* %19, align 4
  %k.val5 = load i32* %k, align 4
  %20 = call fastcc zeroext i1 @_ZNKSt4lessIjEclERKjS2_(i32 %.val4, i32 %k.val5)
  br i1 %20, label %21, label %.loopexit, !dbg !1320

; <label>:21                                      ; preds = %16
  tail call fastcc void @_ZN4klee13ImmutableTreeIjjNS_9_IdentityIjEESt4lessIjEE8iteratorppEv(%"class.klee::ImmutableTree<unsigned int, unsigned int, klee::_Identity<unsigned int>, std::less<unsigned int> >::iterator"* %agg.result), !dbg !1322
  br label %.loopexit, !dbg !1322

.loopexit:                                        ; preds = %10, %16, %21, %._crit_edge
  ret void, !dbg !1323
}

; Function Attrs: nounwind uwtable
define internal fastcc void @_ZN4klee10FixedStackIPNS_13ImmutableTreeIjjNS_9_IdentityIjEESt4lessIjEE4NodeEEC2Ej(%"class.klee::FixedStack"* nocapture %this, i32 %_max) unnamed_addr #1 align 2 {
  %1 = getelementptr inbounds %"class.klee::FixedStack"* %this, i64 0, i32 0, !dbg !1324
  store i32 0, i32* %1, align 4, !dbg !1324
  %2 = getelementptr inbounds %"class.klee::FixedStack"* %this, i64 0, i32 1, !dbg !1324
  store i32 %_max, i32* %2, align 4, !dbg !1324
  %3 = getelementptr inbounds %"class.klee::FixedStack"* %this, i64 0, i32 2, !dbg !1324
  %4 = zext i32 %_max to i64
  %5 = shl nuw nsw i64 %4, 3
  %6 = tail call noalias i8* @_Znam(i64 %5) #17, !dbg !1324
  %7 = bitcast i8* %6 to %"class.klee::ImmutableTree<unsigned int, unsigned int, klee::_Identity<unsigned int>, std::less<unsigned int> >::Node"**, !dbg !1324
  store %"class.klee::ImmutableTree<unsigned int, unsigned int, klee::_Identity<unsigned int>, std::less<unsigned int> >::Node"** %7, %"class.klee::ImmutableTree<unsigned int, unsigned int, klee::_Identity<unsigned int>, std::less<unsigned int> >::Node"*
  ret void, !dbg !1324
}

; Function Attrs: nobuiltin
declare noalias i8* @_Znam(i64) #7

; Function Attrs: nounwind uwtable
define internal fastcc void @_ZNK4klee13ImmutableTreeIjjNS_9_IdentityIjEESt4lessIjEE4findERKj(%"class.klee::ImmutableTree<unsigned int, unsigned int, klee::_Identity<unsigned int>, std::less<unsigned int> >::iterator"* noalias nocapture sret %agg.result,
  %end = alloca %"class.klee::ImmutableTree<unsigned int, unsigned int, klee::_Identity<unsigned int>, std::less<unsigned int> >::iterator", align 8
  %it = alloca %"class.klee::ImmutableTree<unsigned int, unsigned int, klee::_Identity<unsigned int>, std::less<unsigned int> >::iterator", align 8
  %1 = getelementptr inbounds %"class.klee::ImmutableTree"* %this, i64 0, i32 0, !dbg !1325
  %2 = load %"class.klee::ImmutableTree<unsigned int, unsigned int, klee::_Identity<unsigned int>, std::less<unsigned int> >::Node"** %1, align 8, !dbg !1325
  call fastcc void @_ZN4klee13ImmutableTreeIjjNS_9_IdentityIjEESt4lessIjEE8iteratorC2EPNS5_4NodeEb(%"class.klee::ImmutableTree<unsigned int, unsigned int, klee::_Identity<unsigned int>, std::less<unsigned int> >::iterator"* %end, %"class.klee::ImmutableT
  call fastcc void @_ZNK4klee13ImmutableTreeIjjNS_9_IdentityIjEESt4lessIjEE11lower_boundERKj(%"class.klee::ImmutableTree<unsigned int, unsigned int, klee::_Identity<unsigned int>, std::less<unsigned int> >::iterator"* sret %it, %"class.klee::ImmutableTre
  %3 = call fastcc zeroext i1 @_ZN4klee13ImmutableTreeIjjNS_9_IdentityIjEESt4lessIjEE8iteratoreqERKS6_(%"class.klee::ImmutableTree<unsigned int, unsigned int, klee::_Identity<unsigned int>, std::less<unsigned int> >::iterator"* %it, %"class.klee::Immutab
  br i1 %3, label %7, label %4, !dbg !1327

; <label>:4                                       ; preds = %0
  %5 = call fastcc i32* @_ZN4klee13ImmutableTreeIjjNS_9_IdentityIjEESt4lessIjEE8iteratordeEv(%"class.klee::ImmutableTree<unsigned int, unsigned int, klee::_Identity<unsigned int>, std::less<unsigned int> >::iterator"* %it), !dbg !1327
  %key.val = load i32* %key, align 4
  %.val = load i32* %5, align 4
  %6 = call fastcc zeroext i1 @_ZNKSt4lessIjEclERKjS2_(i32 %key.val, i32 %.val)
  br i1 %6, label %7, label %8, !dbg !1327

; <label>:7                                       ; preds = %4, %0
  call fastcc void @_ZN4klee13ImmutableTreeIjjNS_9_IdentityIjEESt4lessIjEE8iteratorC2ERKS6_(%"class.klee::ImmutableTree<unsigned int, unsigned int, klee::_Identity<unsigned int>, std::less<unsigned int> >::iterator"* %agg.result, %"class.klee::ImmutableT
  br label %9, !dbg !1329

; <label>:8                                       ; preds = %4
  call fastcc void @_ZN4klee13ImmutableTreeIjjNS_9_IdentityIjEESt4lessIjEE8iteratorC2ERKS6_(%"class.klee::ImmutableTree<unsigned int, unsigned int, klee::_Identity<unsigned int>, std::less<unsigned int> >::iterator"* %agg.result, %"class.klee::ImmutableT
  br label %9, !dbg !1331

; <label>:9                                       ; preds = %8, %7
  call fastcc void @_ZN4klee13ImmutableTreeIjjNS_9_IdentityIjEESt4lessIjEE8iteratorD2Ev(%"class.klee::ImmutableTree<unsigned int, unsigned int, klee::_Identity<unsigned int>, std::less<unsigned int> >::iterator"* %it), !dbg !1333
  call fastcc void @_ZN4klee13ImmutableTreeIjjNS_9_IdentityIjEESt4lessIjEE8iteratorD2Ev(%"class.klee::ImmutableTree<unsigned int, unsigned int, klee::_Identity<unsigned int>, std::less<unsigned int> >::iterator"* %end), !dbg !1333
  ret void, !dbg !1333
}

; Function Attrs: nounwind uwtable
define internal fastcc i64 @_ZNK4klee13ImmutableTreeIjjNS_9_IdentityIjEESt4lessIjEE5countERKj(%"class.klee::ImmutableTree<unsigned int, unsigned int, klee::_Identity<unsigned int>, std::less<unsigned int> >::Node"* readonly %this.0.0.val, i32* nocapture 
  %1 = tail call fastcc zeroext i1 @_ZN4klee13ImmutableTreeIjjNS_9_IdentityIjEESt4lessIjEE4Node12isTerminatorEv(%"class.klee::ImmutableTree<unsigned int, unsigned int, klee::_Identity<unsigned int>, std::less<unsigned int> >::Node"* %this.0.0.val), !dbg 
  br i1 %1, label %split3, label %.lr.ph.preheader, !dbg !1334

.lr.ph.preheader:                                 ; preds = %0
  %k.val = load i32* %k, align 4
  br label %.lr.ph, !dbg !1336

.lr.ph:                                           ; preds = %.lr.ph.preheader, %.backedge
  %n.02 = phi %"class.klee::ImmutableTree<unsigned int, unsigned int, klee::_Identity<unsigned int>, std::less<unsigned int> >::Node"* [ %n.0, %.backedge ], [ %this.0.0.val, %.lr.ph.preheader ]
  %2 = getelementptr inbounds %"class.klee::ImmutableTree<unsigned int, unsigned int, klee::_Identity<unsigned int>, std::less<unsigned int> >::Node"* %n.02, i64 0, i32 2, !dbg !1336
  %3 = load i32* %2, align 4, !dbg !1336
  %4 = call fastcc zeroext i1 @_ZNKSt4lessIjEclERKjS2_(i32 %k.val, i32 %3)
  br i1 %4, label %5, label %7, !dbg !1338

; <label>:5                                       ; preds = %.lr.ph
  %6 = getelementptr inbounds %"class.klee::ImmutableTree<unsigned int, unsigned int, klee::_Identity<unsigned int>, std::less<unsigned int> >::Node"* %n.02, i64 0, i32 0, !dbg !1340
  br label %.backedge, !dbg !1342

; <label>:7                                       ; preds = %.lr.ph
  %k.val5 = load i32* %k, align 4
  %8 = call fastcc zeroext i1 @_ZNKSt4lessIjEclERKjS2_(i32 %3, i32 %k.val5)
  br i1 %8, label %9, label %split3, !dbg !1343

; <label>:9                                       ; preds = %7
  %10 = getelementptr inbounds %"class.klee::ImmutableTree<unsigned int, unsigned int, klee::_Identity<unsigned int>, std::less<unsigned int> >::Node"* %n.02, i64 0, i32 1, !dbg !1345
  br label %.backedge

.backedge:                                        ; preds = %9, %5
  %n.0.in.be = phi %"class.klee::ImmutableTree<unsigned int, unsigned int, klee::_Identity<unsigned int>, std::less<unsigned int> >::Node"** [ %6, %5 ], [ %10, %9 ]
  %n.0 = load %"class.klee::ImmutableTree<unsigned int, unsigned int, klee::_Identity<unsigned int>, std::less<unsigned int> >::Node"** %n.0.in.be, align 8, !dbg !1347
  %11 = tail call fastcc zeroext i1 @_ZN4klee13ImmutableTreeIjjNS_9_IdentityIjEESt4lessIjEE4Node12isTerminatorEv(%"class.klee::ImmutableTree<unsigned int, unsigned int, klee::_Identity<unsigned int>, std::less<unsigned int> >::Node"* %n.0), !dbg !1334
  br i1 %11, label %split3, label %.lr.ph, !dbg !1334

split3:                                           ; preds = %.backedge, %7, %0
  %.0 = phi i64 [ 0, %0 ], [ 0, %.backedge ], [ 1, %7 ]
  ret i64 %.0, !dbg !1348
}

; Function Attrs: nounwind uwtable
define internal fastcc i64 @_ZNK4klee13ImmutableTreeIjjNS_9_IdentityIjEESt4lessIjEE4sizeEv(%"class.klee::ImmutableTree<unsigned int, unsigned int, klee::_Identity<unsigned int>, std::less<unsigned int> >::Node"* readonly %this.0.0.val) #1 align 2 {
  %1 = tail call fastcc i64 @_ZN4klee13ImmutableTreeIjjNS_9_IdentityIjEESt4lessIjEE4Node4sizeEv(%"class.klee::ImmutableTree<unsigned int, unsigned int, klee::_Identity<unsigned int>, std::less<unsigned int> >::Node"* %this.0.0.val), !dbg !1349
  ret i64 %1, !dbg !1349
}

; Function Attrs: nounwind uwtable
define internal fastcc i64 @_ZN4klee13ImmutableTreeIjjNS_9_IdentityIjEESt4lessIjEE4Node4sizeEv(%"class.klee::ImmutableTree<unsigned int, unsigned int, klee::_Identity<unsigned int>, std::less<unsigned int> >::Node"* readonly %this) #1 align 2 {
  %1 = tail call fastcc zeroext i1 @_ZN4klee13ImmutableTreeIjjNS_9_IdentityIjEESt4lessIjEE4Node12isTerminatorEv(%"class.klee::ImmutableTree<unsigned int, unsigned int, klee::_Identity<unsigned int>, std::less<unsigned int> >::Node"* %this), !dbg !1351
  br i1 %1, label %tailrecurse._crit_edge, label %tailrecurse, !dbg !1351

tailrecurse:                                      ; preds = %0, %tailrecurse
  %this.tr2 = phi %"class.klee::ImmutableTree<unsigned int, unsigned int, klee::_Identity<unsigned int>, std::less<unsigned int> >::Node"* [ %6, %tailrecurse ], [ %this, %0 ]
  %accumulator.tr1 = phi i64 [ %8, %tailrecurse ], [ 0, %0 ]
  %2 = getelementptr inbounds %"class.klee::ImmutableTree<unsigned int, unsigned int, klee::_Identity<unsigned int>, std::less<unsigned int> >::Node"* %this.tr2, i64 0, i32 0, !dbg !1353
  %3 = load %"class.klee::ImmutableTree<unsigned int, unsigned int, klee::_Identity<unsigned int>, std::less<unsigned int> >::Node"** %2, align 8, !dbg !1353
  %4 = tail call fastcc i64 @_ZN4klee13ImmutableTreeIjjNS_9_IdentityIjEESt4lessIjEE4Node4sizeEv(%"class.klee::ImmutableTree<unsigned int, unsigned int, klee::_Identity<unsigned int>, std::less<unsigned int> >::Node"* %3), !dbg !1353
  %5 = getelementptr inbounds %"class.klee::ImmutableTree<unsigned int, unsigned int, klee::_Identity<unsigned int>, std::less<unsigned int> >::Node"* %this.tr2, i64 0, i32 1, !dbg !1353
  %6 = load %"class.klee::ImmutableTree<unsigned int, unsigned int, klee::_Identity<unsigned int>, std::less<unsigned int> >::Node"** %5, align 8, !dbg !1353
  %7 = add i64 %accumulator.tr1, 1, !dbg !1353
  %8 = add i64 %7, %4, !dbg !1353
  %9 = tail call fastcc zeroext i1 @_ZN4klee13ImmutableTreeIjjNS_9_IdentityIjEESt4lessIjEE4Node12isTerminatorEv(%"class.klee::ImmutableTree<unsigned int, unsigned int, klee::_Identity<unsigned int>, std::less<unsigned int> >::Node"* %6), !dbg !1351
  br i1 %9, label %tailrecurse._crit_edge, label %tailrecurse, !dbg !1351

tailrecurse._crit_edge:                           ; preds = %tailrecurse, %0
  %accumulator.tr.lcssa = phi i64 [ 0, %0 ], [ %8, %tailrecurse ]
  ret i64 %accumulator.tr.lcssa, !dbg !1355
}

; Function Attrs: nounwind uwtable
define internal fastcc zeroext i1 @_ZN4klee10FixedStackIPNS_13ImmutableTreeIjjNS_9_IdentityIjEESt4lessIjEE4NodeEEneERKS9_(%"class.klee::FixedStack"* nocapture readonly %this, %"class.klee::FixedStack"* nocapture readonly %b) #1 align 2 {
  %1 = tail call fastcc zeroext i1 @_ZN4klee10FixedStackIPNS_13ImmutableTreeIjjNS_9_IdentityIjEESt4lessIjEE4NodeEEeqERKS9_(%"class.klee::FixedStack"* %this, %"class.klee::FixedStack"* %b), !dbg !1356
  %2 = xor i1 %1, true, !dbg !1356
  ret i1 %2, !dbg !1356
}

; Function Attrs: nounwind uwtable
define internal fastcc void @_ZNK4klee13ImmutableTreeIjjNS_9_IdentityIjEESt4lessIjEE3endEv(%"class.klee::ImmutableTree<unsigned int, unsigned int, klee::_Identity<unsigned int>, std::less<unsigned int> >::iterator"* noalias nocapture sret %agg.result, %"
  tail call fastcc void @_ZN4klee13ImmutableTreeIjjNS_9_IdentityIjEESt4lessIjEE8iteratorC2EPNS5_4NodeEb(%"class.klee::ImmutableTree<unsigned int, unsigned int, klee::_Identity<unsigned int>, std::less<unsigned int> >::iterator"* %agg.result, %"class.klee
  ret void, !dbg !1357
}

; Function Attrs: nounwind uwtable
define internal fastcc void @_ZN4klee10FixedStackIPNS_13ImmutableTreeIjjNS_9_IdentityIjEESt4lessIjEE4NodeEEC2ERKS9_(%"class.klee::FixedStack"* nocapture %this, %"class.klee::FixedStack"* nocapture readonly %b) unnamed_addr #1 align 2 {
  %1 = getelementptr inbounds %"class.klee::FixedStack"* %this, i64 0, i32 0, !dbg !1359
  %2 = getelementptr inbounds %"class.klee::FixedStack"* %b, i64 0, i32 0, !dbg !1359
  %3 = load i32* %2, align 4, !dbg !1359
  store i32 %3, i32* %1, align 4, !dbg !1359
  %4 = getelementptr inbounds %"class.klee::FixedStack"* %this, i64 0, i32 1, !dbg !1359
  %5 = getelementptr inbounds %"class.klee::FixedStack"* %b, i64 0, i32 1, !dbg !1359
  %6 = load i32* %5, align 4, !dbg !1359
  store i32 %6, i32* %4, align 4, !dbg !1359
  %7 = getelementptr inbounds %"class.klee::FixedStack"* %this, i64 0, i32 2, !dbg !1359
  %8 = load i32* %5, align 4, !dbg !1359
  %9 = zext i32 %8 to i64
  %10 = shl nuw nsw i64 %9, 3
  %11 = tail call noalias i8* @_Znam(i64 %10) #17, !dbg !1359
  %12 = bitcast i8* %11 to %"class.klee::ImmutableTree<unsigned int, unsigned int, klee::_Identity<unsigned int>, std::less<unsigned int> >::Node"**, !dbg !1359
  store %"class.klee::ImmutableTree<unsigned int, unsigned int, klee::_Identity<unsigned int>, std::less<unsigned int> >::Node"** %12, %"class.klee::ImmutableTree<unsigned int, unsigned int, klee::_Identity<unsigned int>, std::less<unsigned int> >::Node"
  %13 = getelementptr inbounds %"class.klee::FixedStack"* %b, i64 0, i32 2, !dbg !1360
  %14 = load %"class.klee::ImmutableTree<unsigned int, unsigned int, klee::_Identity<unsigned int>, std::less<unsigned int> >::Node"*** %13, align 8, !dbg !1360
  %15 = load i32* %1, align 4, !dbg !1360
  %16 = zext i32 %15 to i64, !dbg !1360
  %17 = getelementptr inbounds %"class.klee::ImmutableTree<unsigned int, unsigned int, klee::_Identity<unsigned int>, std::less<unsigned int> >::Node"** %14, i64 %16, !dbg !1360
  tail call fastcc void @_ZSt4copyIPPN4klee13ImmutableTreeIjjNS0_9_IdentityIjEESt4lessIjEE4NodeES9_ET0_T_SB_SA_(%"class.klee::ImmutableTree<unsigned int, unsigned int, klee::_Identity<unsigned int>, std::less<unsigned int> >::Node"** %14, %"class.klee::I
  ret void, !dbg !1362
}

; Function Attrs: inlinehint nounwind uwtable
define internal fastcc void @_ZSt4copyIPPN4klee13ImmutableTreeIjjNS0_9_IdentityIjEESt4lessIjEE4NodeES9_ET0_T_SB_SA_(%"class.klee::ImmutableTree<unsigned int, unsigned int, klee::_Identity<unsigned int>, std::less<unsigned int> >::Node"** readnone %__firs
  tail call fastcc void @_ZSt14__copy_move_a2ILb0EPPN4klee13ImmutableTreeIjjNS0_9_IdentityIjEESt4lessIjEE4NodeES9_ET1_T0_SB_SA_(%"class.klee::ImmutableTree<unsigned int, unsigned int, klee::_Identity<unsigned int>, std::less<unsigned int> >::Node"** %__f
  ret void
}

; Function Attrs: inlinehint nounwind uwtable
define internal fastcc void @_ZSt14__copy_move_a2ILb0EPPN4klee13ImmutableTreeIjjNS0_9_IdentityIjEESt4lessIjEE4NodeES9_ET1_T0_SB_SA_(%"class.klee::ImmutableTree<unsigned int, unsigned int, klee::_Identity<unsigned int>, std::less<unsigned int> >::Node"** 
  %1 = tail call fastcc %"class.klee::ImmutableTree<unsigned int, unsigned int, klee::_Identity<unsigned int>, std::less<unsigned int> >::Node"** @_ZSt12__niter_baseIPPN4klee13ImmutableTreeIjjNS0_9_IdentityIjEESt4lessIjEE4NodeEENSt11_Niter_baseIT_E13iter
  %2 = tail call fastcc %"class.klee::ImmutableTree<unsigned int, unsigned int, klee::_Identity<unsigned int>, std::less<unsigned int> >::Node"** @_ZSt12__niter_baseIPPN4klee13ImmutableTreeIjjNS0_9_IdentityIjEESt4lessIjEE4NodeEENSt11_Niter_baseIT_E13iter
  %3 = tail call fastcc %"class.klee::ImmutableTree<unsigned int, unsigned int, klee::_Identity<unsigned int>, std::less<unsigned int> >::Node"** @_ZSt12__niter_baseIPPN4klee13ImmutableTreeIjjNS0_9_IdentityIjEESt4lessIjEE4NodeEENSt11_Niter_baseIT_E13iter
  tail call fastcc void @_ZSt13__copy_move_aILb0EPPN4klee13ImmutableTreeIjjNS0_9_IdentityIjEESt4lessIjEE4NodeES9_ET1_T0_SB_SA_(%"class.klee::ImmutableTree<unsigned int, unsigned int, klee::_Identity<unsigned int>, std::less<unsigned int> >::Node"** %1, %
  ret void
}

; Function Attrs: inlinehint nounwind uwtable
define internal fastcc void @_ZSt13__copy_move_aILb0EPPN4klee13ImmutableTreeIjjNS0_9_IdentityIjEESt4lessIjEE4NodeES9_ET1_T0_SB_SA_(%"class.klee::ImmutableTree<unsigned int, unsigned int, klee::_Identity<unsigned int>, std::less<unsigned int> >::Node"** %
  tail call fastcc void @_ZNSt11__copy_moveILb0ELb1ESt26random_access_iterator_tagE8__copy_mIPN4klee13ImmutableTreeIjjNS3_9_IdentityIjEESt4lessIjEE4NodeEEEPT_PKSC_SF_SD_(%"class.klee::ImmutableTree<unsigned int, unsigned int, klee::_Identity<unsigned int
  ret void
}

; Function Attrs: nounwind uwtable
define internal fastcc void @_ZNSt11__copy_moveILb0ELb1ESt26random_access_iterator_tagE8__copy_mIPN4klee13ImmutableTreeIjjNS3_9_IdentityIjEESt4lessIjEE4NodeEEEPT_PKSC_SF_SD_(%"class.klee::ImmutableTree<unsigned int, unsigned int, klee::_Identity<unsigned
  tail call void @klee_div_zero_check(i64 8) #5, !dbg !1370
  %1 = icmp eq %"class.klee::ImmutableTree<unsigned int, unsigned int, klee::_Identity<unsigned int>, std::less<unsigned int> >::Node"** %__last, %__first, !dbg !1371
  br i1 %1, label %9, label %2, !dbg !1371

; <label>:2                                       ; preds = %0
  %3 = ptrtoint %"class.klee::ImmutableTree<unsigned int, unsigned int, klee::_Identity<unsigned int>, std::less<unsigned int> >::Node"** %__last to i64, !dbg !1370
  %4 = ptrtoint %"class.klee::ImmutableTree<unsigned int, unsigned int, klee::_Identity<unsigned int>, std::less<unsigned int> >::Node"** %__first to i64, !dbg !1370
  %5 = sub i64 %3, %4, !dbg !1370
  %6 = bitcast %"class.klee::ImmutableTree<unsigned int, unsigned int, klee::_Identity<unsigned int>, std::less<unsigned int> >::Node"** %__result to i8*, !dbg !1373
  %7 = bitcast %"class.klee::ImmutableTree<unsigned int, unsigned int, klee::_Identity<unsigned int>, std::less<unsigned int> >::Node"** %__first to i8*, !dbg !1373
  %8 = call i8* @memmove(i8* %6, i8* %7, i64 %5)
  br label %9, !dbg !1373

; <label>:9                                       ; preds = %0, %2
  ret void
}

; Function Attrs: nounwind
declare void @llvm.memmove.p0i8.p0i8.i64(i8* nocapture, i8* nocapture readonly, i64, i32, i1) #5

; Function Attrs: nounwind uwtable
define internal fastcc void @_ZN4klee10FixedStackIPNS_13ImmutableTreeIjjNS_9_IdentityIjEESt4lessIjEE4NodeEED2Ev(%"class.klee::ImmutableTree<unsigned int, unsigned int, klee::_Identity<unsigned int>, std::less<unsigned int> >::Node"** %this.0.2.val) unnam
  %1 = icmp eq %"class.klee::ImmutableTree<unsigned int, unsigned int, klee::_Identity<unsigned int>, std::less<unsigned int> >::Node"** %this.0.2.val, null, !dbg !1374
  br i1 %1, label %4, label %2, !dbg !1374

; <label>:2                                       ; preds = %0
  %3 = bitcast %"class.klee::ImmutableTree<unsigned int, unsigned int, klee::_Identity<unsigned int>, std::less<unsigned int> >::Node"** %this.0.2.val to i8*, !dbg !1374
  tail call void @_ZdaPv(i8* %3) #17, !dbg !1374
  br label %4, !dbg !1374

; <label>:4                                       ; preds = %2, %0
  ret void, !dbg !1376
}

; Function Attrs: nobuiltin nounwind
declare void @_ZdaPv(i8*) #6

; Function Attrs: nounwind uwtable
define internal fastcc void @_ZNK4klee13ImmutableTreeIjjNS_9_IdentityIjEESt4lessIjEE5beginEv(%"class.klee::ImmutableTree<unsigned int, unsigned int, klee::_Identity<unsigned int>, std::less<unsigned int> >::iterator"* noalias nocapture sret %agg.result, 
  tail call fastcc void @_ZN4klee13ImmutableTreeIjjNS_9_IdentityIjEESt4lessIjEE8iteratorC2EPNS5_4NodeEb(%"class.klee::ImmutableTree<unsigned int, unsigned int, klee::_Identity<unsigned int>, std::less<unsigned int> >::iterator"* %agg.result, %"class.klee
  ret void, !dbg !1377
}

; Function Attrs: nounwind uwtable
define internal fastcc void @__cxa_atexit() #11 {
  tail call void @klee_warning_once(i8* getelementptr inbounds ([34 x i8]* @.str24, i64 0, i64 0)) #5, !dbg !1379
  %1 = load i32* @NumAtExit, align 4, !dbg !1380, !tbaa !1382
  %2 = icmp eq i32 %1, 128, !dbg !1380
  br i1 %2, label %3, label %4, !dbg !1380

; <label>:3                                       ; preds = %0
  tail call void @klee_report_error(i8* getelementptr inbounds ([15 x i8]* @.str125, i64 0, i64 0), i32 39, i8* getelementptr inbounds ([32 x i8]* @.str226, i64 0, i64 0), i8* getelementptr inbounds ([5 x i8]* @.str327, i64 0, i64 0)) #16, !dbg !1386
  unreachable, !dbg !1386

; <label>:4                                       ; preds = %0
  %5 = zext i32 %1 to i64, !dbg !1387
  %6 = getelementptr inbounds [128 x %struct.anon]* @AtExit, i64 0, i64 %5, i32 0, !dbg !1387
  store void (i8*)* bitcast (void (%"class.klee::ImmutableTree<unsigned int, unsigned int, klee::_Identity<unsigned int>, std::less<unsigned int> >::Node"*)* @_ZN4klee13ImmutableTreeIjjNS_9_IdentityIjEESt4lessIjEE4NodeD2Ev to void (i8*)*), void (i8*)** %
  %7 = getelementptr inbounds [128 x %struct.anon]* @AtExit, i64 0, i64 %5, i32 1, !dbg !1391
  store i8* bitcast (%"class.klee::ImmutableTree<unsigned int, unsigned int, klee::_Identity<unsigned int>, std::less<unsigned int> >::Node"* @_ZN4klee13ImmutableTreeIjjNS_9_IdentityIjEESt4lessIjEE4Node10terminatorE to i8*), i8** %7, align 8, !dbg !1391,
  %8 = add i32 %1, 1, !dbg !1393
  store i32 %8, i32* @NumAtExit, align 4, !dbg !1393, !tbaa !1382
  ret void
}

declare void @klee_warning_once(i8*) #12

; Function Attrs: noreturn
declare void @klee_report_error(i8*, i32, i8*, i8*) #13

; Function Attrs: nounwind readonly uwtable
define internal fastcc i32 @memcmp(i8* nocapture readonly %s1, i8* nocapture readonly %s2, i64 %n) #14 {
  %1 = icmp eq i64 %n, 0, !dbg !1394
  br i1 %1, label %.loopexit, label %.preheader, !dbg !1394

.preheader:                                       ; preds = %0, %9
  %.0 = phi i64 [ %12, %9 ], [ %n, %0 ]
  %p1.0 = phi i8* [ %11, %9 ], [ %s1, %0 ]
  %p2.0 = phi i8* [ %10, %9 ], [ %s2, %0 ]
  %2 = load i8* %p1.0, align 1, !dbg !1395, !tbaa !1398
  %3 = load i8* %p2.0, align 1, !dbg !1395, !tbaa !1398
  %4 = icmp eq i8 %2, %3, !dbg !1395
  br i1 %4, label %9, label %5, !dbg !1395

; <label>:5                                       ; preds = %.preheader
  %6 = zext i8 %2 to i32, !dbg !1399
  %7 = zext i8 %3 to i32, !dbg !1399
  %8 = sub nsw i32 %6, %7, !dbg !1399
  br label %.loopexit, !dbg !1399

; <label>:9                                       ; preds = %.preheader
  %10 = getelementptr inbounds i8* %p2.0, i64 1, !dbg !1395
  %11 = getelementptr inbounds i8* %p1.0, i64 1, !dbg !1395
  %12 = add i64 %.0, -1, !dbg !1401
  %13 = icmp eq i64 %12, 0, !dbg !1401
  br i1 %13, label %.loopexit, label %.preheader, !dbg !1401

.loopexit:                                        ; preds = %9, %5, %0
  %.01 = phi i32 [ %8, %5 ], [ 0, %0 ], [ 0, %9 ]
  ret i32 %.01, !dbg !1402
}

; Function Attrs: nounwind uwtable
define internal void @RunAtExit() #11 {
  %1 = load i32* @NumAtExit, align 4, !dbg !1403, !tbaa !1382
  %2 = icmp eq i32 %1, 0, !dbg !1403
  br i1 %2, label %._crit_edge, label %.lr.ph, !dbg !1403

.lr.ph:                                           ; preds = %0, %.lr.ph
  %i.01 = phi i32 [ %8, %.lr.ph ], [ 0, %0 ]
  %3 = zext i32 %i.01 to i64, !dbg !1405
  %4 = getelementptr inbounds [128 x %struct.anon]* @AtExit, i64 0, i64 %3, i32 0, !dbg !1405
  %5 = load void (i8*)** %4, align 8, !dbg !1405, !tbaa !1388
  %6 = getelementptr inbounds [128 x %struct.anon]* @AtExit, i64 0, i64 %3, i32 1, !dbg !1405
  %7 = load i8** %6, align 8, !dbg !1405, !tbaa !1392
  tail call void %5(i8* %7) #5, !dbg !1405
  %8 = add i32 %i.01, 1, !dbg !1403
  %9 = load i32* @NumAtExit, align 4, !dbg !1403, !tbaa !1382
  %10 = icmp ult i32 %8, %9, !dbg !1403
  br i1 %10, label %.lr.ph, label %._crit_edge, !dbg !1403

._crit_edge:                                      ; preds = %.lr.ph, %0
  ret void, !dbg !1406
}

; Function Attrs: nounwind uwtable
define void @klee_div_zero_check(i64 %z) #11 {
  %1 = icmp eq i64 %z, 0, !dbg !1407
  br i1 %1, label %2, label %3, !dbg !1407

; <label>:2                                       ; preds = %0
  tail call void @klee_report_error(i8* getelementptr inbounds ([22 x i8]* @.str48, i64 0, i64 0), i32 14, i8* getelementptr inbounds ([15 x i8]* @.str149, i64 0, i64 0), i8* getelementptr inbounds ([8 x i8]* @.str250, i64 0, i64 0)) #18, !dbg !1409
  unreachable, !dbg !1409

; <label>:3                                       ; preds = %0
  ret void, !dbg !1410
}

; Function Attrs: nounwind readnone
declare void @llvm.dbg.value(metadata, i64, metadata) #15

; Function Attrs: nounwind uwtable
define i32 @klee_int(i8* %name) #11 {
  %x = alloca i32, align 4
  %1 = bitcast i32* %x to i8*, !dbg !1411
  call void @klee_make_symbolic(i8* %1, i64 4, i8* %name) #19, !dbg !1411
  %2 = load i32* %x, align 4, !dbg !1412, !tbaa !1382
  ret i32 %2, !dbg !1412
}

; Function Attrs: nounwind readnone
declare void @llvm.dbg.declare(metadata, metadata) #15

declare void @klee_make_symbolic(i8*, i64, i8*) #12

; Function Attrs: nounwind uwtable
define void @klee_overshift_check(i64 %bitWidth, i64 %shift) #11 {
  %1 = icmp ult i64 %shift, %bitWidth, !dbg !1413
  br i1 %1, label %3, label %2, !dbg !1413

; <label>:2                                       ; preds = %0
  tail call void @klee_report_error(i8* getelementptr inbounds ([8 x i8]* @.str351, i64 0, i64 0), i32 0, i8* getelementptr inbounds ([16 x i8]* @.str1452, i64 0, i64 0), i8* getelementptr inbounds ([14 x i8]* @.str25, i64 0, i64 0)) #18, !dbg !1415
  unreachable, !dbg !1415

; <label>:3                                       ; preds = %0
  ret void, !dbg !1417
}

; Function Attrs: nounwind uwtable
define i32 @klee_range(i32 %start, i32 %end, i8* %name) #11 {
  %x = alloca i32, align 4
  %1 = icmp slt i32 %start, %end, !dbg !1418
  br i1 %1, label %3, label %2, !dbg !1418

; <label>:2                                       ; preds = %0
  call void @klee_report_error(i8* getelementptr inbounds ([13 x i8]* @.str653, i64 0, i64 0), i32 17, i8* getelementptr inbounds ([14 x i8]* @.str1754, i64 0, i64 0), i8* getelementptr inbounds ([5 x i8]* @.str28, i64 0, i64 0)) #18, !dbg !1420
  unreachable, !dbg !1420

; <label>:3                                       ; preds = %0
  %4 = add nsw i32 %start, 1, !dbg !1421
  %5 = icmp eq i32 %4, %end, !dbg !1421
  br i1 %5, label %21, label %6, !dbg !1421

; <label>:6                                       ; preds = %3
  %7 = bitcast i32* %x to i8*, !dbg !1423
  call void @klee_make_symbolic(i8* %7, i64 4, i8* %name) #19, !dbg !1423
  %8 = icmp eq i32 %start, 0, !dbg !1425
  %9 = load i32* %x, align 4, !dbg !1427, !tbaa !1382
  br i1 %8, label %10, label %13, !dbg !1425

; <label>:10                                      ; preds = %6
  %11 = icmp ult i32 %9, %end, !dbg !1427
  %12 = zext i1 %11 to i64, !dbg !1427
  call void @klee_assume(i64 %12) #19, !dbg !1427
  br label %19, !dbg !1429

; <label>:13                                      ; preds = %6
  %14 = icmp sge i32 %9, %start, !dbg !1430
  %15 = zext i1 %14 to i64, !dbg !1430
  call void @klee_assume(i64 %15) #19, !dbg !1430
  %16 = load i32* %x, align 4, !dbg !1432, !tbaa !1382
  %17 = icmp slt i32 %16, %end, !dbg !1432
  %18 = zext i1 %17 to i64, !dbg !1432
  call void @klee_assume(i64 %18) #19, !dbg !1432
  br label %19

; <label>:19                                      ; preds = %13, %10
  %20 = load i32* %x, align 4, !dbg !1433, !tbaa !1382
  br label %21, !dbg !1433

; <label>:21                                      ; preds = %19, %3
  %.0 = phi i32 [ %20, %19 ], [ %start, %3 ]
  ret i32 %.0, !dbg !1434
}

declare void @klee_assume(i64) #12

; Function Attrs: nounwind uwtable
define weak i8* @memcpy(i8* %destaddr, i8* %srcaddr, i64 %len) #11 {
  %1 = icmp eq i64 %len, 0, !dbg !1435
  br i1 %1, label %._crit_edge, label %.lr.ph.preheader, !dbg !1435

.lr.ph.preheader:                                 ; preds = %0
  %n.vec = and i64 %len, -32
  %cmp.zero = icmp eq i64 %n.vec, 0
  %2 = add i64 %len, -1
  br i1 %cmp.zero, label %middle.block, label %vector.memcheck

vector.memcheck:                                  ; preds = %.lr.ph.preheader
  %scevgep4 = getelementptr i8* %srcaddr, i64 %2
  %scevgep = getelementptr i8* %destaddr, i64 %2
  %bound1 = icmp uge i8* %scevgep, %srcaddr
  %bound0 = icmp uge i8* %scevgep4, %destaddr
  %memcheck.conflict = and i1 %bound0, %bound1
  %ptr.ind.end = getelementptr i8* %srcaddr, i64 %n.vec
  %ptr.ind.end6 = getelementptr i8* %destaddr, i64 %n.vec
  %rev.ind.end = sub i64 %len, %n.vec
  br i1 %memcheck.conflict, label %middle.block, label %vector.body

vector.body:                                      ; preds = %vector.body, %vector.memcheck
  %index = phi i64 [ %index.next, %vector.body ], [ 0, %vector.memcheck ]
  %next.gep = getelementptr i8* %srcaddr, i64 %index
  %next.gep103 = getelementptr i8* %destaddr, i64 %index
  %3 = bitcast i8* %next.gep to <16 x i8>*, !dbg !1436
  %wide.load = load <16 x i8>* %3, align 1, !dbg !1436
  %next.gep.sum279 = or i64 %index, 16, !dbg !1436
  %4 = getelementptr i8* %srcaddr, i64 %next.gep.sum279, !dbg !1436
  %5 = bitcast i8* %4 to <16 x i8>*, !dbg !1436
  %wide.load200 = load <16 x i8>* %5, align 1, !dbg !1436
  %6 = bitcast i8* %next.gep103 to <16 x i8>*, !dbg !1436
  store <16 x i8> %wide.load, <16 x i8>* %6, align 1, !dbg !1436
  %7 = getelementptr i8* %destaddr, i64 %next.gep.sum279, !dbg !1436
  %8 = bitcast i8* %7 to <16 x i8>*, !dbg !1436
  store <16 x i8> %wide.load200, <16 x i8>* %8, align 1, !dbg !1436
  %index.next = add i64 %index, 32
  %9 = icmp eq i64 %index.next, %n.vec
  br i1 %9, label %middle.block, label %vector.body, !llvm.loop !1437

middle.block:                                     ; preds = %vector.body, %vector.memcheck, %.lr.ph.preheader
  %resume.val = phi i8* [ %srcaddr, %.lr.ph.preheader ], [ %srcaddr, %vector.memcheck ], [ %ptr.ind.end, %vector.body ]
  %resume.val5 = phi i8* [ %destaddr, %.lr.ph.preheader ], [ %destaddr, %vector.memcheck ], [ %ptr.ind.end6, %vector.body ]
  %resume.val7 = phi i64 [ %len, %.lr.ph.preheader ], [ %len, %vector.memcheck ], [ %rev.ind.end, %vector.body ]
  %new.indc.resume.val = phi i64 [ 0, %.lr.ph.preheader ], [ 0, %vector.memcheck ], [ %n.vec, %vector.body ]
  %cmp.n = icmp eq i64 %new.indc.resume.val, %len
  br i1 %cmp.n, label %._crit_edge, label %.lr.ph

.lr.ph:                                           ; preds = %.lr.ph, %middle.block
  %src.03 = phi i8* [ %11, %.lr.ph ], [ %resume.val, %middle.block ]
  %dest.02 = phi i8* [ %13, %.lr.ph ], [ %resume.val5, %middle.block ]
  %.01 = phi i64 [ %10, %.lr.ph ], [ %resume.val7, %middle.block ]
  %10 = add i64 %.01, -1, !dbg !1435
  %11 = getelementptr inbounds i8* %src.03, i64 1, !dbg !1436
  %12 = load i8* %src.03, align 1, !dbg !1436, !tbaa !1398
  %13 = getelementptr inbounds i8* %dest.02, i64 1, !dbg !1436
  store i8 %12, i8* %dest.02, align 1, !dbg !1436, !tbaa !1398
  %14 = icmp eq i64 %10, 0, !dbg !1435
  br i1 %14, label %._crit_edge, label %.lr.ph, !dbg !1435, !llvm.loop !1440

._crit_edge:                                      ; preds = %.lr.ph, %middle.block, %0
  ret i8* %destaddr, !dbg !1441
}

; Function Attrs: nounwind uwtable
define weak i8* @memmove(i8* %dst, i8* %src, i64 %count) #11 {
  %1 = icmp eq i8* %src, %dst, !dbg !1442
  br i1 %1, label %.loopexit, label %2, !dbg !1442

; <label>:2                                       ; preds = %0
  %3 = icmp ugt i8* %src, %dst, !dbg !1444
  br i1 %3, label %.preheader, label %18, !dbg !1444

.preheader:                                       ; preds = %2
  %4 = icmp eq i64 %count, 0, !dbg !1446
  br i1 %4, label %.loopexit, label %.lr.ph.preheader, !dbg !1446

.lr.ph.preheader:                                 ; preds = %.preheader
  %n.vec = and i64 %count, -32
  %cmp.zero = icmp eq i64 %n.vec, 0
  %5 = add i64 %count, -1
  br i1 %cmp.zero, label %middle.block, label %vector.memcheck

vector.memcheck:                                  ; preds = %.lr.ph.preheader
  %scevgep11 = getelementptr i8* %src, i64 %5
  %scevgep = getelementptr i8* %dst, i64 %5
  %bound1 = icmp uge i8* %scevgep, %src
  %bound0 = icmp uge i8* %scevgep11, %dst
  %memcheck.conflict = and i1 %bound0, %bound1
  %ptr.ind.end = getelementptr i8* %src, i64 %n.vec
  %ptr.ind.end13 = getelementptr i8* %dst, i64 %n.vec
  %rev.ind.end = sub i64 %count, %n.vec
  br i1 %memcheck.conflict, label %middle.block, label %vector.body

vector.body:                                      ; preds = %vector.body, %vector.memcheck
  %index = phi i64 [ %index.next, %vector.body ], [ 0, %vector.memcheck ]
  %next.gep = getelementptr i8* %src, i64 %index
  %next.gep110 = getelementptr i8* %dst, i64 %index
  %6 = bitcast i8* %next.gep to <16 x i8>*, !dbg !1446
  %wide.load = load <16 x i8>* %6, align 1, !dbg !1446
  %next.gep.sum586 = or i64 %index, 16, !dbg !1446
  %7 = getelementptr i8* %src, i64 %next.gep.sum586, !dbg !1446
  %8 = bitcast i8* %7 to <16 x i8>*, !dbg !1446
  %wide.load207 = load <16 x i8>* %8, align 1, !dbg !1446
  %9 = bitcast i8* %next.gep110 to <16 x i8>*, !dbg !1446
  store <16 x i8> %wide.load, <16 x i8>* %9, align 1, !dbg !1446
  %10 = getelementptr i8* %dst, i64 %next.gep.sum586, !dbg !1446
  %11 = bitcast i8* %10 to <16 x i8>*, !dbg !1446
  store <16 x i8> %wide.load207, <16 x i8>* %11, align 1, !dbg !1446
  %index.next = add i64 %index, 32
  %12 = icmp eq i64 %index.next, %n.vec
  br i1 %12, label %middle.block, label %vector.body, !llvm.loop !1448

middle.block:                                     ; preds = %vector.body, %vector.memcheck, %.lr.ph.preheader
  %resume.val = phi i8* [ %src, %.lr.ph.preheader ], [ %src, %vector.memcheck ], [ %ptr.ind.end, %vector.body ]
  %resume.val12 = phi i8* [ %dst, %.lr.ph.preheader ], [ %dst, %vector.memcheck ], [ %ptr.ind.end13, %vector.body ]
  %resume.val14 = phi i64 [ %count, %.lr.ph.preheader ], [ %count, %vector.memcheck ], [ %rev.ind.end, %vector.body ]
  %new.indc.resume.val = phi i64 [ 0, %.lr.ph.preheader ], [ 0, %vector.memcheck ], [ %n.vec, %vector.body ]
  %cmp.n = icmp eq i64 %new.indc.resume.val, %count
  br i1 %cmp.n, label %.loopexit, label %.lr.ph

.lr.ph:                                           ; preds = %.lr.ph, %middle.block
  %b.04 = phi i8* [ %14, %.lr.ph ], [ %resume.val, %middle.block ]
  %a.03 = phi i8* [ %16, %.lr.ph ], [ %resume.val12, %middle.block ]
  %.02 = phi i64 [ %13, %.lr.ph ], [ %resume.val14, %middle.block ]
  %13 = add i64 %.02, -1, !dbg !1446
  %14 = getelementptr inbounds i8* %b.04, i64 1, !dbg !1446
  %15 = load i8* %b.04, align 1, !dbg !1446, !tbaa !1398
  %16 = getelementptr inbounds i8* %a.03, i64 1, !dbg !1446
  store i8 %15, i8* %a.03, align 1, !dbg !1446, !tbaa !1398
  %17 = icmp eq i64 %13, 0, !dbg !1446
  br i1 %17, label %.loopexit, label %.lr.ph, !dbg !1446, !llvm.loop !1449

; <label>:18                                      ; preds = %2
  %19 = add i64 %count, -1, !dbg !1450
  %20 = icmp eq i64 %count, 0, !dbg !1452
  br i1 %20, label %.loopexit, label %.lr.ph9, !dbg !1452

.lr.ph9:                                          ; preds = %18
  %21 = getelementptr inbounds i8* %src, i64 %19, !dbg !1453
  %22 = getelementptr inbounds i8* %dst, i64 %19, !dbg !1450
  %n.vec215 = and i64 %count, -32
  %cmp.zero217 = icmp eq i64 %n.vec215, 0
  br i1 %cmp.zero217, label %middle.block210, label %vector.memcheck224

vector.memcheck224:                               ; preds = %.lr.ph9
  %bound1221 = icmp ule i8* %21, %dst
  %bound0220 = icmp ule i8* %22, %src
  %memcheck.conflict223 = and i1 %bound0220, %bound1221
  %.sum = sub i64 %19, %n.vec215
  %rev.ptr.ind.end = getelementptr i8* %src, i64 %.sum
  %rev.ptr.ind.end229 = getelementptr i8* %dst, i64 %.sum
  %rev.ind.end231 = sub i64 %count, %n.vec215
  br i1 %memcheck.conflict223, label %middle.block210, label %vector.body209

vector.body209:                                   ; preds = %vector.body209, %vector.memcheck224
  %index212 = phi i64 [ %index.next234, %vector.body209 ], [ 0, %vector.memcheck224 ]
  %.sum440 = sub i64 %19, %index212
  %next.gep236.sum = add i64 %.sum440, -15, !dbg !1452
  %23 = getelementptr i8* %src, i64 %next.gep236.sum, !dbg !1452
  %24 = bitcast i8* %23 to <16 x i8>*, !dbg !1452
  %wide.load434 = load <16 x i8>* %24, align 1, !dbg !1452
  %reverse = shufflevector <16 x i8> %wide.load434, <16 x i8> undef, <16 x i32> <i32 15, i32 14, i32 13, i32 12, i32 11, i32 10, i32 9, i32 8, i32 7, i32 6, i32 5, i32 4, i32 3, i32 2, i32 1, i32 0>, !dbg !1452
  %.sum505 = add i64 %.sum440, -31, !dbg !1452
  %25 = getelementptr i8* %src, i64 %.sum505, !dbg !1452
  %26 = bitcast i8* %25 to <16 x i8>*, !dbg !1452
  %wide.load435 = load <16 x i8>* %26, align 1, !dbg !1452
  %reverse436 = shufflevector <16 x i8> %wide.load435, <16 x i8> undef, <16 x i32> <i32 15, i32 14, i32 13, i32 12, i32 11, i32 10, i32 9, i32 8, i32 7, i32 6, i32 5, i32 4, i32 3, i32 2, i32 1, i32 0>, !dbg !1452
  %reverse437 = shufflevector <16 x i8> %reverse, <16 x i8> undef, <16 x i32> <i32 15, i32 14, i32 13, i32 12, i32 11, i32 10, i32 9, i32 8, i32 7, i32 6, i32 5, i32 4, i32 3, i32 2, i32 1, i32 0>, !dbg !1452
  %27 = getelementptr i8* %dst, i64 %next.gep236.sum, !dbg !1452
  %28 = bitcast i8* %27 to <16 x i8>*, !dbg !1452
  store <16 x i8> %reverse437, <16 x i8>* %28, align 1, !dbg !1452
  %reverse438 = shufflevector <16 x i8> %reverse436, <16 x i8> undef, <16 x i32> <i32 15, i32 14, i32 13, i32 12, i32 11, i32 10, i32 9, i32 8, i32 7, i32 6, i32 5, i32 4, i32 3, i32 2, i32 1, i32 0>, !dbg !1452
  %29 = getelementptr i8* %dst, i64 %.sum505, !dbg !1452
  %30 = bitcast i8* %29 to <16 x i8>*, !dbg !1452
  store <16 x i8> %reverse438, <16 x i8>* %30, align 1, !dbg !1452
  %index.next234 = add i64 %index212, 32
  %31 = icmp eq i64 %index.next234, %n.vec215
  br i1 %31, label %middle.block210, label %vector.body209, !llvm.loop !1454

middle.block210:                                  ; preds = %vector.body209, %vector.memcheck224, %.lr.ph9
  %resume.val225 = phi i8* [ %21, %.lr.ph9 ], [ %21, %vector.memcheck224 ], [ %rev.ptr.ind.end, %vector.body209 ]
  %resume.val227 = phi i8* [ %22, %.lr.ph9 ], [ %22, %vector.memcheck224 ], [ %rev.ptr.ind.end229, %vector.body209 ]
  %resume.val230 = phi i64 [ %count, %.lr.ph9 ], [ %count, %vector.memcheck224 ], [ %rev.ind.end231, %vector.body209 ]
  %new.indc.resume.val232 = phi i64 [ 0, %.lr.ph9 ], [ 0, %vector.memcheck224 ], [ %n.vec215, %vector.body209 ]
  %cmp.n233 = icmp eq i64 %new.indc.resume.val232, %count
  br i1 %cmp.n233, label %.loopexit, label %scalar.ph211

scalar.ph211:                                     ; preds = %scalar.ph211, %middle.block210
  %b.18 = phi i8* [ %33, %scalar.ph211 ], [ %resume.val225, %middle.block210 ]
  %a.17 = phi i8* [ %35, %scalar.ph211 ], [ %resume.val227, %middle.block210 ]
  %.16 = phi i64 [ %32, %scalar.ph211 ], [ %resume.val230, %middle.block210 ]
  %32 = add i64 %.16, -1, !dbg !1452
  %33 = getelementptr inbounds i8* %b.18, i64 -1, !dbg !1452
  %34 = load i8* %b.18, align 1, !dbg !1452, !tbaa !1398
  %35 = getelementptr inbounds i8* %a.17, i64 -1, !dbg !1452
  store i8 %34, i8* %a.17, align 1, !dbg !1452, !tbaa !1398
  %36 = icmp eq i64 %32, 0, !dbg !1452
  br i1 %36, label %.loopexit, label %scalar.ph211, !dbg !1452, !llvm.loop !1455

.loopexit:                                        ; preds = %scalar.ph211, %middle.block210, %18, %.lr.ph, %middle.block, %.preheader, %0
  ret i8* %dst, !dbg !1456
}

; Function Attrs: nounwind uwtable
define weak i8* @mempcpy(i8* %destaddr, i8* %srcaddr, i64 %len) #11 {
  %1 = icmp eq i64 %len, 0, !dbg !1457
  br i1 %1, label %15, label %.lr.ph.preheader, !dbg !1457

.lr.ph.preheader:                                 ; preds = %0
  %n.vec = and i64 %len, -32
  %cmp.zero = icmp eq i64 %n.vec, 0
  %2 = add i64 %len, -1
  br i1 %cmp.zero, label %middle.block, label %vector.memcheck

vector.memcheck:                                  ; preds = %.lr.ph.preheader
  %scevgep5 = getelementptr i8* %srcaddr, i64 %2
  %scevgep4 = getelementptr i8* %destaddr, i64 %2
  %bound1 = icmp uge i8* %scevgep4, %srcaddr
  %bound0 = icmp uge i8* %scevgep5, %destaddr
  %memcheck.conflict = and i1 %bound0, %bound1
  %ptr.ind.end = getelementptr i8* %srcaddr, i64 %n.vec
  %ptr.ind.end7 = getelementptr i8* %destaddr, i64 %n.vec
  %rev.ind.end = sub i64 %len, %n.vec
  br i1 %memcheck.conflict, label %middle.block, label %vector.body

vector.body:                                      ; preds = %vector.body, %vector.memcheck
  %index = phi i64 [ %index.next, %vector.body ], [ 0, %vector.memcheck ]
  %next.gep = getelementptr i8* %srcaddr, i64 %index
  %next.gep104 = getelementptr i8* %destaddr, i64 %index
  %3 = bitcast i8* %next.gep to <16 x i8>*, !dbg !1458
  %wide.load = load <16 x i8>* %3, align 1, !dbg !1458
  %next.gep.sum280 = or i64 %index, 16, !dbg !1458
  %4 = getelementptr i8* %srcaddr, i64 %next.gep.sum280, !dbg !1458
  %5 = bitcast i8* %4 to <16 x i8>*, !dbg !1458
  %wide.load201 = load <16 x i8>* %5, align 1, !dbg !1458
  %6 = bitcast i8* %next.gep104 to <16 x i8>*, !dbg !1458
  store <16 x i8> %wide.load, <16 x i8>* %6, align 1, !dbg !1458
  %7 = getelementptr i8* %destaddr, i64 %next.gep.sum280, !dbg !1458
  %8 = bitcast i8* %7 to <16 x i8>*, !dbg !1458
  store <16 x i8> %wide.load201, <16 x i8>* %8, align 1, !dbg !1458
  %index.next = add i64 %index, 32
  %9 = icmp eq i64 %index.next, %n.vec
  br i1 %9, label %middle.block, label %vector.body, !llvm.loop !1459

middle.block:                                     ; preds = %vector.body, %vector.memcheck, %.lr.ph.preheader
  %resume.val = phi i8* [ %srcaddr, %.lr.ph.preheader ], [ %srcaddr, %vector.memcheck ], [ %ptr.ind.end, %vector.body ]
  %resume.val6 = phi i8* [ %destaddr, %.lr.ph.preheader ], [ %destaddr, %vector.memcheck ], [ %ptr.ind.end7, %vector.body ]
  %resume.val8 = phi i64 [ %len, %.lr.ph.preheader ], [ %len, %vector.memcheck ], [ %rev.ind.end, %vector.body ]
  %new.indc.resume.val = phi i64 [ 0, %.lr.ph.preheader ], [ 0, %vector.memcheck ], [ %n.vec, %vector.body ]
  %cmp.n = icmp eq i64 %new.indc.resume.val, %len
  br i1 %cmp.n, label %._crit_edge, label %.lr.ph

.lr.ph:                                           ; preds = %.lr.ph, %middle.block
  %src.03 = phi i8* [ %11, %.lr.ph ], [ %resume.val, %middle.block ]
  %dest.02 = phi i8* [ %13, %.lr.ph ], [ %resume.val6, %middle.block ]
  %.01 = phi i64 [ %10, %.lr.ph ], [ %resume.val8, %middle.block ]
  %10 = add i64 %.01, -1, !dbg !1457
  %11 = getelementptr inbounds i8* %src.03, i64 1, !dbg !1458
  %12 = load i8* %src.03, align 1, !dbg !1458, !tbaa !1398
  %13 = getelementptr inbounds i8* %dest.02, i64 1, !dbg !1458
  store i8 %12, i8* %dest.02, align 1, !dbg !1458, !tbaa !1398
  %14 = icmp eq i64 %10, 0, !dbg !1457
  br i1 %14, label %._crit_edge, label %.lr.ph, !dbg !1457, !llvm.loop !1460

._crit_edge:                                      ; preds = %.lr.ph, %middle.block
  %scevgep = getelementptr i8* %destaddr, i64 %len
  br label %15, !dbg !1457

; <label>:15                                      ; preds = %._crit_edge, %0
  %dest.0.lcssa = phi i8* [ %scevgep, %._crit_edge ], [ %destaddr, %0 ]
  ret i8* %dest.0.lcssa, !dbg !1461
}

; Function Attrs: nounwind uwtable
define weak i8* @memset(i8* %dst, i32 %s, i64 %count) #11 {
  %1 = icmp eq i64 %count, 0, !dbg !1462
  br i1 %1, label %._crit_edge, label %.lr.ph, !dbg !1462

.lr.ph:                                           ; preds = %0
  %2 = trunc i32 %s to i8, !dbg !1463
  br label %3, !dbg !1462

; <label>:3                                       ; preds = %3, %.lr.ph
  %a.02 = phi i8* [ %dst, %.lr.ph ], [ %5, %3 ]
  %.01 = phi i64 [ %count, %.lr.ph ], [ %4, %3 ]
  %4 = add i64 %.01, -1, !dbg !1462
  %5 = getelementptr inbounds i8* %a.02, i64 1, !dbg !1463
  store volatile i8 %2, i8* %a.02, align 1, !dbg !1463, !tbaa !1398
  %6 = icmp eq i64 %4, 0, !dbg !1462
  br i1 %6, label %._crit_edge, label %3, !dbg !1462

._crit_edge:                                      ; preds = %3, %0
  ret i8* %dst, !dbg !1464
}

define internal void @klee.ctor_stub() {
entry:
  call void @__cxx_global_var_init()
  ret void
}

define internal void @klee.dtor_stub() {
entry:
  call void @RunAtExit()
  ret void
}

attributes #0 = { nounwind readnone uwtable "less-precise-fpmad"="false" "no-frame-pointer-elim"="true" "no-frame-pointer-elim-non-leaf" "no-infs-fp-math"="false" "no-nans-fp-math"="false" "stack-protector-buffer-size"="8" "unsafe-fp-math"="false" "use-s
attributes #1 = { nounwind uwtable "less-precise-fpmad"="false" "no-frame-pointer-elim"="true" "no-frame-pointer-elim-non-leaf" "no-infs-fp-math"="false" "no-nans-fp-math"="false" "stack-protector-buffer-size"="8" "unsafe-fp-math"="false" "use-soft-float
attributes #2 = { noreturn nounwind "less-precise-fpmad"="false" "no-frame-pointer-elim"="true" "no-frame-pointer-elim-non-leaf" "no-infs-fp-math"="false" "no-nans-fp-math"="false" "stack-protector-buffer-size"="8" "unsafe-fp-math"="false" "use-soft-floa
attributes #3 = { nounwind readonly uwtable "less-precise-fpmad"="false" "no-frame-pointer-elim"="true" "no-frame-pointer-elim-non-leaf" "no-infs-fp-math"="false" "no-nans-fp-math"="false" "stack-protector-buffer-size"="8" "unsafe-fp-math"="false" "use-s
attributes #4 = { noreturn "less-precise-fpmad"="false" "no-frame-pointer-elim"="true" "no-frame-pointer-elim-non-leaf" "no-infs-fp-math"="false" "no-nans-fp-math"="false" "stack-protector-buffer-size"="8" "unsafe-fp-math"="false" "use-soft-float"="false
attributes #5 = { nounwind }
attributes #6 = { nobuiltin nounwind "less-precise-fpmad"="false" "no-frame-pointer-elim"="true" "no-frame-pointer-elim-non-leaf" "no-infs-fp-math"="false" "no-nans-fp-math"="false" "stack-protector-buffer-size"="8" "unsafe-fp-math"="false" "use-soft-flo
attributes #7 = { nobuiltin "less-precise-fpmad"="false" "no-frame-pointer-elim"="true" "no-frame-pointer-elim-non-leaf" "no-infs-fp-math"="false" "no-nans-fp-math"="false" "stack-protector-buffer-size"="8" "unsafe-fp-math"="false" "use-soft-float"="fals
attributes #8 = { inlinehint nounwind readonly uwtable "less-precise-fpmad"="false" "no-frame-pointer-elim"="true" "no-frame-pointer-elim-non-leaf" "no-infs-fp-math"="false" "no-nans-fp-math"="false" "stack-protector-buffer-size"="8" "unsafe-fp-math"="fa
attributes #9 = { inlinehint nounwind uwtable "less-precise-fpmad"="false" "no-frame-pointer-elim"="true" "no-frame-pointer-elim-non-leaf" "no-infs-fp-math"="false" "no-nans-fp-math"="false" "stack-protector-buffer-size"="8" "unsafe-fp-math"="false" "use
attributes #10 = { inlinehint nounwind readnone uwtable "less-precise-fpmad"="false" "no-frame-pointer-elim"="true" "no-frame-pointer-elim-non-leaf" "no-infs-fp-math"="false" "no-nans-fp-math"="false" "stack-protector-buffer-size"="8" "unsafe-fp-math"="f
attributes #11 = { nounwind uwtable "less-precise-fpmad"="false" "no-frame-pointer-elim"="false" "no-infs-fp-math"="false" "no-nans-fp-math"="false" "stack-protector-buffer-size"="8" "unsafe-fp-math"="false" "use-soft-float"="false" }
attributes #12 = { "less-precise-fpmad"="false" "no-frame-pointer-elim"="false" "no-infs-fp-math"="false" "no-nans-fp-math"="false" "stack-protector-buffer-size"="8" "unsafe-fp-math"="false" "use-soft-float"="false" }
attributes #13 = { noreturn "less-precise-fpmad"="false" "no-frame-pointer-elim"="false" "no-infs-fp-math"="false" "no-nans-fp-math"="false" "stack-protector-buffer-size"="8" "unsafe-fp-math"="false" "use-soft-float"="false" }
attributes #14 = { nounwind readonly uwtable "less-precise-fpmad"="false" "no-frame-pointer-elim"="false" "no-infs-fp-math"="false" "no-nans-fp-math"="false" "stack-protector-buffer-size"="8" "unsafe-fp-math"="false" "use-soft-float"="false" }
attributes #15 = { nounwind readnone }
attributes #16 = { noreturn nounwind }
attributes #17 = { builtin nounwind }
attributes #18 = { nobuiltin noreturn nounwind }
attributes #19 = { nobuiltin nounwind }

!llvm.dbg.cu = !{!0, !465, !495, !501, !512, !524, !526, !550, !562, !583, !600, !615, !630, !645, !659, !670, !681, !691, !703, !714, !723, !733, !744, !757, !774, !785, !821, !840, !848, !856, !867, !876, !888, !901, !916, !931, !946}
!llvm.module.flags = !{!962, !963}
!llvm.ident = !{!964, !964, !964, !964, !964, !964, !964, !964, !964, !964, !964, !964, !964, !964, !964, !964, !964, !964, !964, !964, !964, !964, !964, !964, !964, !964, !964, !964, !964, !964, !964, !964, !964, !964, !964, !964, !964}

!0 = metadata !{i32 786449, metadata !1, i32 4, metadata !"clang version 3.4.2 (tags/RELEASE_34/dot2-final)", i1 false, metadata !"", i32 0, metadata !2, metadata !7, metadata !338, metadata !456, metadata !459, metadata !""} ; [ DW_TAG_compile_unit ] [/
!1 = metadata !{metadata !"/home/sanghu/TracerX/tracerx/test/Dogfood/ImmutableSet.cpp", metadata !"/home/sanghu/TracerX/tracerx/test/Dogfood"}
!2 = metadata !{metadata !3}
!3 = metadata !{i32 786436, metadata !4, metadata !"_ZTSSt10__are_sameIPN4klee13ImmutableTreeIjjNS0_9_IdentityIjEESt4lessIjEE4NodeES8_E", metadata !"", i32 113, i64 32, i64 32, i32 0, i32 0, null, metadata !5, i32 0, null, null, metadata !"_ZTSNSt10__are
!4 = metadata !{metadata !"/usr/lib/gcc/x86_64-linux-gnu/5.4.0/../../../../include/c++/5.4.0/bits/cpp_type_traits.h", metadata !"/home/sanghu/TracerX/tracerx/test/Dogfood"}
!5 = metadata !{metadata !6}
!6 = metadata !{i32 786472, metadata !"__value", i64 1} ; [ DW_TAG_enumerator ] [__value :: 1]
!7 = metadata !{metadata !8, metadata !88, metadata !103, metadata !210, metadata !222, metadata !162, metadata !262, metadata !303, metadata !309, metadata !319, metadata !3, metadata !322, metadata !331}
!8 = metadata !{i32 786434, metadata !9, metadata !10, metadata !"ImmutableSet<unsigned int, std::less<unsigned int> >", i32 25, i64 64, i64 64, i32 0, i32 0, null, metadata !12, i32 0, null, metadata !85, metadata !"_ZTSN4klee12ImmutableSetIjSt4lessIjEE
!9 = metadata !{metadata !"/home/sanghu/TracerX/tracerx/include/klee/Internal/ADT/ImmutableSet.h", metadata !"/home/sanghu/TracerX/tracerx/test/Dogfood"}
!10 = metadata !{i32 786489, metadata !11, null, metadata !"klee", i32 16} ; [ DW_TAG_namespace ] [klee] [line 16]
!11 = metadata !{metadata !"/home/sanghu/TracerX/tracerx/include/klee/Internal/ADT/ImmutableTree.h", metadata !"/home/sanghu/TracerX/tracerx/test/Dogfood"}
!12 = metadata !{metadata !13, metadata !15, metadata !22, metadata !25, metadata !30, metadata !31, metadata !35, metadata !40, metadata !49, metadata !55, metadata !59, metadata !60, metadata !63, metadata !66, metadata !67, metadata !70, metadata !71,
!13 = metadata !{i32 786445, metadata !9, metadata !"_ZTSN4klee12ImmutableSetIjSt4lessIjEEE", metadata !"elts", i32 34, i64 64, i64 64, i64 0, i32 1, metadata !14} ; [ DW_TAG_member ] [elts] [line 34, size 64, align 64, offset 0] [private] [from Tree]
!14 = metadata !{i32 786454, metadata !9, metadata !"_ZTSN4klee12ImmutableSetIjSt4lessIjEEE", metadata !"Tree", i32 30, i64 0, i64 0, i64 0, i32 0, metadata !"_ZTSN4klee13ImmutableTreeIjjNS_9_IdentityIjEESt4lessIjEEE"} ; [ DW_TAG_typedef ] [Tree] [line 3
!15 = metadata !{i32 786478, metadata !9, metadata !"_ZTSN4klee12ImmutableSetIjSt4lessIjEEE", metadata !"ImmutableSet", metadata !"ImmutableSet", metadata !"", i32 36, metadata !16, i1 false, i1 false, i32 0, i32 0, null, i32 257, i1 false, null, null, i
!16 = metadata !{i32 786453, i32 0, null, metadata !"", i32 0, i64 0, i64 0, i64 0, i32 0, null, metadata !17, i32 0, null, null, null} ; [ DW_TAG_subroutine_type ] [line 0, size 0, align 0, offset 0] [from ]
!17 = metadata !{null, metadata !18, metadata !19}
!18 = metadata !{i32 786447, null, null, metadata !"", i32 0, i64 64, i64 64, i64 0, i32 1088, metadata !"_ZTSN4klee12ImmutableSetIjSt4lessIjEEE"} ; [ DW_TAG_pointer_type ] [line 0, size 64, align 64, offset 0] [artificial] [from _ZTSN4klee12ImmutableSet
!19 = metadata !{i32 786448, null, null, null, i32 0, i64 0, i64 0, i64 0, i32 0, metadata !20} ; [ DW_TAG_reference_type ] [line 0, size 0, align 0, offset 0] [from ]
!20 = metadata !{i32 786470, null, null, metadata !"", i32 0, i64 0, i64 0, i64 0, i32 0, metadata !14} ; [ DW_TAG_const_type ] [line 0, size 0, align 0, offset 0] [from Tree]
!21 = metadata !{i32 786468}
!22 = metadata !{i32 786478, metadata !9, metadata !"_ZTSN4klee12ImmutableSetIjSt4lessIjEEE", metadata !"ImmutableSet", metadata !"ImmutableSet", metadata !"", i32 39, metadata !23, i1 false, i1 false, i32 0, i32 0, null, i32 256, i1 false, null, null, i
!23 = metadata !{i32 786453, i32 0, null, metadata !"", i32 0, i64 0, i64 0, i64 0, i32 0, null, metadata !24, i32 0, null, null, null} ; [ DW_TAG_subroutine_type ] [line 0, size 0, align 0, offset 0] [from ]
!24 = metadata !{null, metadata !18}
!25 = metadata !{i32 786478, metadata !9, metadata !"_ZTSN4klee12ImmutableSetIjSt4lessIjEEE", metadata !"ImmutableSet", metadata !"ImmutableSet", metadata !"", i32 40, metadata !26, i1 false, i1 false, i32 0, i32 0, null, i32 256, i1 false, null, null, i
!26 = metadata !{i32 786453, i32 0, null, metadata !"", i32 0, i64 0, i64 0, i64 0, i32 0, null, metadata !27, i32 0, null, null, null} ; [ DW_TAG_subroutine_type ] [line 0, size 0, align 0, offset 0] [from ]
!27 = metadata !{null, metadata !18, metadata !28}
!28 = metadata !{i32 786448, null, null, null, i32 0, i64 0, i64 0, i64 0, i32 0, metadata !29} ; [ DW_TAG_reference_type ] [line 0, size 0, align 0, offset 0] [from ]
!29 = metadata !{i32 786470, null, null, metadata !"", i32 0, i64 0, i64 0, i64 0, i32 0, metadata !"_ZTSN4klee12ImmutableSetIjSt4lessIjEEE"} ; [ DW_TAG_const_type ] [line 0, size 0, align 0, offset 0] [from _ZTSN4klee12ImmutableSetIjSt4lessIjEEE]
!30 = metadata !{i32 786478, metadata !9, metadata !"_ZTSN4klee12ImmutableSetIjSt4lessIjEEE", metadata !"~ImmutableSet", metadata !"~ImmutableSet", metadata !"", i32 41, metadata !23, i1 false, i1 false, i32 0, i32 0, null, i32 256, i1 false, null, null,
!31 = metadata !{i32 786478, metadata !9, metadata !"_ZTSN4klee12ImmutableSetIjSt4lessIjEEE", metadata !"operator=", metadata !"operator=", metadata !"_ZN4klee12ImmutableSetIjSt4lessIjEEaSERKS3_", i32 43, metadata !32, i1 false, i1 false, i32 0, i32 0, n
!32 = metadata !{i32 786453, i32 0, null, metadata !"", i32 0, i64 0, i64 0, i64 0, i32 0, null, metadata !33, i32 0, null, null, null} ; [ DW_TAG_subroutine_type ] [line 0, size 0, align 0, offset 0] [from ]
!33 = metadata !{metadata !34, metadata !18, metadata !28}
!34 = metadata !{i32 786448, null, null, null, i32 0, i64 0, i64 0, i64 0, i32 0, metadata !"_ZTSN4klee12ImmutableSetIjSt4lessIjEEE"} ; [ DW_TAG_reference_type ] [line 0, size 0, align 0, offset 0] [from _ZTSN4klee12ImmutableSetIjSt4lessIjEEE]
!35 = metadata !{i32 786478, metadata !9, metadata !"_ZTSN4klee12ImmutableSetIjSt4lessIjEEE", metadata !"empty", metadata !"empty", metadata !"_ZNK4klee12ImmutableSetIjSt4lessIjEE5emptyEv", i32 45, metadata !36, i1 false, i1 false, i32 0, i32 0, null, i3
!36 = metadata !{i32 786453, i32 0, null, metadata !"", i32 0, i64 0, i64 0, i64 0, i32 0, null, metadata !37, i32 0, null, null, null} ; [ DW_TAG_subroutine_type ] [line 0, size 0, align 0, offset 0] [from ]
!37 = metadata !{metadata !38, metadata !39}
!38 = metadata !{i32 786468, null, null, metadata !"bool", i32 0, i64 8, i64 8, i64 0, i32 0, i32 2} ; [ DW_TAG_base_type ] [bool] [line 0, size 8, align 8, offset 0, enc DW_ATE_boolean]
!39 = metadata !{i32 786447, null, null, metadata !"", i32 0, i64 64, i64 64, i64 0, i32 1088, metadata !29} ; [ DW_TAG_pointer_type ] [line 0, size 64, align 64, offset 0] [artificial] [from ]
!40 = metadata !{i32 786478, metadata !9, metadata !"_ZTSN4klee12ImmutableSetIjSt4lessIjEEE", metadata !"count", metadata !"count", metadata !"_ZNK4klee12ImmutableSetIjSt4lessIjEE5countERKj", i32 48, metadata !41, i1 false, i1 false, i32 0, i32 0, null, 
!41 = metadata !{i32 786453, i32 0, null, metadata !"", i32 0, i64 0, i64 0, i64 0, i32 0, null, metadata !42, i32 0, null, null, null} ; [ DW_TAG_subroutine_type ] [line 0, size 0, align 0, offset 0] [from ]
!42 = metadata !{metadata !43, metadata !39, metadata !45}
!43 = metadata !{i32 786454, metadata !11, null, metadata !"size_t", i32 42, i64 0, i64 0, i64 0, i32 0, metadata !44} ; [ DW_TAG_typedef ] [size_t] [line 42, size 0, align 0, offset 0] [from long unsigned int]
!44 = metadata !{i32 786468, null, null, metadata !"long unsigned int", i32 0, i64 64, i64 64, i64 0, i32 0, i32 7} ; [ DW_TAG_base_type ] [long unsigned int] [line 0, size 64, align 64, offset 0, enc DW_ATE_unsigned]
!45 = metadata !{i32 786448, null, null, null, i32 0, i64 0, i64 0, i64 0, i32 0, metadata !46} ; [ DW_TAG_reference_type ] [line 0, size 0, align 0, offset 0] [from ]
!46 = metadata !{i32 786470, null, null, metadata !"", i32 0, i64 0, i64 0, i64 0, i32 0, metadata !47} ; [ DW_TAG_const_type ] [line 0, size 0, align 0, offset 0] [from key_type]
!47 = metadata !{i32 786454, metadata !9, metadata !"_ZTSN4klee12ImmutableSetIjSt4lessIjEEE", metadata !"key_type", i32 27, i64 0, i64 0, i64 0, i32 0, metadata !48} ; [ DW_TAG_typedef ] [key_type] [line 27, size 0, align 0, offset 0] [from unsigned int]
!48 = metadata !{i32 786468, null, null, metadata !"unsigned int", i32 0, i64 32, i64 32, i64 0, i32 0, i32 7} ; [ DW_TAG_base_type ] [unsigned int] [line 0, size 32, align 32, offset 0, enc DW_ATE_unsigned]
!49 = metadata !{i32 786478, metadata !9, metadata !"_ZTSN4klee12ImmutableSetIjSt4lessIjEEE", metadata !"lookup", metadata !"lookup", metadata !"_ZNK4klee12ImmutableSetIjSt4lessIjEE6lookupERKj", i32 51, metadata !50, i1 false, i1 false, i32 0, i32 0, nul
!50 = metadata !{i32 786453, i32 0, null, metadata !"", i32 0, i64 0, i64 0, i64 0, i32 0, null, metadata !51, i32 0, null, null, null} ; [ DW_TAG_subroutine_type ] [line 0, size 0, align 0, offset 0] [from ]
!51 = metadata !{metadata !52, metadata !39, metadata !45}
!52 = metadata !{i32 786447, null, null, metadata !"", i32 0, i64 64, i64 64, i64 0, i32 0, metadata !53} ; [ DW_TAG_pointer_type ] [line 0, size 64, align 64, offset 0] [from ]
!53 = metadata !{i32 786470, null, null, metadata !"", i32 0, i64 0, i64 0, i64 0, i32 0, metadata !54} ; [ DW_TAG_const_type ] [line 0, size 0, align 0, offset 0] [from value_type]
!54 = metadata !{i32 786454, metadata !9, metadata !"_ZTSN4klee12ImmutableSetIjSt4lessIjEEE", metadata !"value_type", i32 28, i64 0, i64 0, i64 0, i32 0, metadata !48} ; [ DW_TAG_typedef ] [value_type] [line 28, size 0, align 0, offset 0] [from unsigned 
!55 = metadata !{i32 786478, metadata !9, metadata !"_ZTSN4klee12ImmutableSetIjSt4lessIjEEE", metadata !"min", metadata !"min", metadata !"_ZNK4klee12ImmutableSetIjSt4lessIjEE3minEv", i32 54, metadata !56, i1 false, i1 false, i32 0, i32 0, null, i32 256,
!56 = metadata !{i32 786453, i32 0, null, metadata !"", i32 0, i64 0, i64 0, i64 0, i32 0, null, metadata !57, i32 0, null, null, null} ; [ DW_TAG_subroutine_type ] [line 0, size 0, align 0, offset 0] [from ]
!57 = metadata !{metadata !58, metadata !39}
!58 = metadata !{i32 786448, null, null, null, i32 0, i64 0, i64 0, i64 0, i32 0, metadata !53} ; [ DW_TAG_reference_type ] [line 0, size 0, align 0, offset 0] [from ]
!59 = metadata !{i32 786478, metadata !9, metadata !"_ZTSN4klee12ImmutableSetIjSt4lessIjEEE", metadata !"max", metadata !"max", metadata !"_ZNK4klee12ImmutableSetIjSt4lessIjEE3maxEv", i32 57, metadata !56, i1 false, i1 false, i32 0, i32 0, null, i32 256,
!60 = metadata !{i32 786478, metadata !9, metadata !"_ZTSN4klee12ImmutableSetIjSt4lessIjEEE", metadata !"size", metadata !"size", metadata !"_ZN4klee12ImmutableSetIjSt4lessIjEE4sizeEv", i32 60, metadata !61, i1 false, i1 false, i32 0, i32 0, null, i32 25
!61 = metadata !{i32 786453, i32 0, null, metadata !"", i32 0, i64 0, i64 0, i64 0, i32 0, null, metadata !62, i32 0, null, null, null} ; [ DW_TAG_subroutine_type ] [line 0, size 0, align 0, offset 0] [from ]
!62 = metadata !{metadata !43, metadata !18}
!63 = metadata !{i32 786478, metadata !9, metadata !"_ZTSN4klee12ImmutableSetIjSt4lessIjEEE", metadata !"insert", metadata !"insert", metadata !"_ZNK4klee12ImmutableSetIjSt4lessIjEE6insertERKj", i32 64, metadata !64, i1 false, i1 false, i32 0, i32 0, nul
!64 = metadata !{i32 786453, i32 0, null, metadata !"", i32 0, i64 0, i64 0, i64 0, i32 0, null, metadata !65, i32 0, null, null, null} ; [ DW_TAG_subroutine_type ] [line 0, size 0, align 0, offset 0] [from ]
!65 = metadata !{metadata !8, metadata !39, metadata !58}
!66 = metadata !{i32 786478, metadata !9, metadata !"_ZTSN4klee12ImmutableSetIjSt4lessIjEEE", metadata !"replace", metadata !"replace", metadata !"_ZNK4klee12ImmutableSetIjSt4lessIjEE7replaceERKj", i32 67, metadata !64, i1 false, i1 false, i32 0, i32 0, 
!67 = metadata !{i32 786478, metadata !9, metadata !"_ZTSN4klee12ImmutableSetIjSt4lessIjEEE", metadata !"remove", metadata !"remove", metadata !"_ZNK4klee12ImmutableSetIjSt4lessIjEE6removeERKj", i32 70, metadata !68, i1 false, i1 false, i32 0, i32 0, nul
!68 = metadata !{i32 786453, i32 0, null, metadata !"", i32 0, i64 0, i64 0, i64 0, i32 0, null, metadata !69, i32 0, null, null, null} ; [ DW_TAG_subroutine_type ] [line 0, size 0, align 0, offset 0] [from ]
!69 = metadata !{metadata !8, metadata !39, metadata !45}
!70 = metadata !{i32 786478, metadata !9, metadata !"_ZTSN4klee12ImmutableSetIjSt4lessIjEEE", metadata !"popMin", metadata !"popMin", metadata !"_ZNK4klee12ImmutableSetIjSt4lessIjEE6popMinERKj", i32 73, metadata !64, i1 false, i1 false, i32 0, i32 0, nul
!71 = metadata !{i32 786478, metadata !9, metadata !"_ZTSN4klee12ImmutableSetIjSt4lessIjEEE", metadata !"popMax", metadata !"popMax", metadata !"_ZNK4klee12ImmutableSetIjSt4lessIjEE6popMaxERKj", i32 76, metadata !64, i1 false, i1 false, i32 0, i32 0, nul
!72 = metadata !{i32 786478, metadata !9, metadata !"_ZTSN4klee12ImmutableSetIjSt4lessIjEEE", metadata !"begin", metadata !"begin", metadata !"_ZNK4klee12ImmutableSetIjSt4lessIjEE5beginEv", i32 80, metadata !73, i1 false, i1 false, i32 0, i32 0, null, i3
!73 = metadata !{i32 786453, i32 0, null, metadata !"", i32 0, i64 0, i64 0, i64 0, i32 0, null, metadata !74, i32 0, null, null, null} ; [ DW_TAG_subroutine_type ] [line 0, size 0, align 0, offset 0] [from ]
!74 = metadata !{metadata !75, metadata !39}
!75 = metadata !{i32 786454, metadata !9, metadata !"_ZTSN4klee12ImmutableSetIjSt4lessIjEEE", metadata !"iterator", i32 31, i64 0, i64 0, i64 0, i32 0, metadata !"_ZTSN4klee13ImmutableTreeIjjNS_9_IdentityIjEESt4lessIjEE8iteratorE"} ; [ DW_TAG_typedef ] [
!76 = metadata !{i32 786478, metadata !9, metadata !"_ZTSN4klee12ImmutableSetIjSt4lessIjEEE", metadata !"end", metadata !"end", metadata !"_ZNK4klee12ImmutableSetIjSt4lessIjEE3endEv", i32 83, metadata !73, i1 false, i1 false, i32 0, i32 0, null, i32 256,
!77 = metadata !{i32 786478, metadata !9, metadata !"_ZTSN4klee12ImmutableSetIjSt4lessIjEEE", metadata !"find", metadata !"find", metadata !"_ZNK4klee12ImmutableSetIjSt4lessIjEE4findERKj", i32 86, metadata !78, i1 false, i1 false, i32 0, i32 0, null, i32
!78 = metadata !{i32 786453, i32 0, null, metadata !"", i32 0, i64 0, i64 0, i64 0, i32 0, null, metadata !79, i32 0, null, null, null} ; [ DW_TAG_subroutine_type ] [line 0, size 0, align 0, offset 0] [from ]
!79 = metadata !{metadata !75, metadata !39, metadata !45}
!80 = metadata !{i32 786478, metadata !9, metadata !"_ZTSN4klee12ImmutableSetIjSt4lessIjEEE", metadata !"lower_bound", metadata !"lower_bound", metadata !"_ZNK4klee12ImmutableSetIjSt4lessIjEE11lower_boundERKj", i32 89, metadata !78, i1 false, i1 false, i
!81 = metadata !{i32 786478, metadata !9, metadata !"_ZTSN4klee12ImmutableSetIjSt4lessIjEEE", metadata !"upper_bound", metadata !"upper_bound", metadata !"_ZNK4klee12ImmutableSetIjSt4lessIjEE11upper_boundERKj", i32 92, metadata !78, i1 false, i1 false, i
!82 = metadata !{i32 786478, metadata !9, metadata !"_ZTSN4klee12ImmutableSetIjSt4lessIjEEE", metadata !"getAllocated", metadata !"getAllocated", metadata !"_ZN4klee12ImmutableSetIjSt4lessIjEE12getAllocatedEv", i32 96, metadata !83, i1 false, i1 false, i
!83 = metadata !{i32 786453, i32 0, null, metadata !"", i32 0, i64 0, i64 0, i64 0, i32 0, null, metadata !84, i32 0, null, null, null} ; [ DW_TAG_subroutine_type ] [line 0, size 0, align 0, offset 0] [from ]
!84 = metadata !{metadata !43}
!85 = metadata !{metadata !86, metadata !87}
!86 = metadata !{i32 786479, null, metadata !"T", metadata !48, null, i32 0, i32 0} ; [ DW_TAG_template_type_parameter ]
!87 = metadata !{i32 786479, null, metadata !"CMP", metadata !"_ZTSSt4lessIjE", null, i32 0, i32 0} ; [ DW_TAG_template_type_parameter ]
!88 = metadata !{i32 786451, metadata !89, metadata !90, metadata !"less<unsigned int>", i32 382, i64 8, i64 8, i32 0, i32 0, null, metadata !92, i32 0, null, metadata !101, metadata !"_ZTSSt4lessIjE"} ; [ DW_TAG_structure_type ] [less<unsigned int>] [li
!89 = metadata !{metadata !"/usr/lib/gcc/x86_64-linux-gnu/5.4.0/../../../../include/c++/5.4.0/bits/stl_function.h", metadata !"/home/sanghu/TracerX/tracerx/test/Dogfood"}
!90 = metadata !{i32 786489, metadata !91, null, metadata !"std", i32 194} ; [ DW_TAG_namespace ] [std] [line 194]
!91 = metadata !{metadata !"/usr/lib/gcc/x86_64-linux-gnu/5.4.0/../../../../include/x86_64-linux-gnu/c++/5.4.0/bits/c++config.h", metadata !"/home/sanghu/TracerX/tracerx/test/Dogfood"}
!92 = metadata !{metadata !93, metadata !94}
!93 = metadata !{i32 786460, null, metadata !"_ZTSSt4lessIjE", null, i32 0, i64 0, i64 0, i64 0, i32 0, metadata !"_ZTSSt15binary_functionIjjbE"} ; [ DW_TAG_inheritance ] [line 0, size 0, align 0, offset 0] [from _ZTSSt15binary_functionIjjbE]
!94 = metadata !{i32 786478, metadata !89, metadata !"_ZTSSt4lessIjE", metadata !"operator()", metadata !"operator()", metadata !"_ZNKSt4lessIjEclERKjS2_", i32 386, metadata !95, i1 false, i1 false, i32 0, i32 0, null, i32 256, i1 false, null, null, i32 
!95 = metadata !{i32 786453, i32 0, null, metadata !"", i32 0, i64 0, i64 0, i64 0, i32 0, null, metadata !96, i32 0, null, null, null} ; [ DW_TAG_subroutine_type ] [line 0, size 0, align 0, offset 0] [from ]
!96 = metadata !{metadata !38, metadata !97, metadata !99, metadata !99}
!97 = metadata !{i32 786447, null, null, metadata !"", i32 0, i64 64, i64 64, i64 0, i32 1088, metadata !98} ; [ DW_TAG_pointer_type ] [line 0, size 64, align 64, offset 0] [artificial] [from ]
!98 = metadata !{i32 786470, null, null, metadata !"", i32 0, i64 0, i64 0, i64 0, i32 0, metadata !"_ZTSSt4lessIjE"} ; [ DW_TAG_const_type ] [line 0, size 0, align 0, offset 0] [from _ZTSSt4lessIjE]
!99 = metadata !{i32 786448, null, null, null, i32 0, i64 0, i64 0, i64 0, i32 0, metadata !100} ; [ DW_TAG_reference_type ] [line 0, size 0, align 0, offset 0] [from ]
!100 = metadata !{i32 786470, null, null, metadata !"", i32 0, i64 0, i64 0, i64 0, i32 0, metadata !48} ; [ DW_TAG_const_type ] [line 0, size 0, align 0, offset 0] [from unsigned int]
!101 = metadata !{metadata !102}
!102 = metadata !{i32 786479, null, metadata !"_Tp", metadata !48, null, i32 0, i32 0} ; [ DW_TAG_template_type_parameter ]
!103 = metadata !{i32 786434, metadata !11, metadata !10, metadata !"ImmutableTree<unsigned int, unsigned int, klee::_Identity<unsigned int>, std::less<unsigned int> >", i32 18, i64 64, i64 64, i32 0, i32 0, null, metadata !104, i32 0, null, metadata !20
!104 = metadata !{metadata !105, metadata !106, metadata !108, metadata !112, metadata !117, metadata !118, metadata !122, metadata !126, metadata !132, metadata !138, metadata !139, metadata !143, metadata !144, metadata !147, metadata !150, metadata !1
!105 = metadata !{i32 786445, metadata !11, metadata !"_ZTSN4klee13ImmutableTreeIjjNS_9_IdentityIjEESt4lessIjEEE", metadata !"allocated", i32 20, i64 0, i64 0, i64 0, i32 4096, metadata !43, null} ; [ DW_TAG_member ] [allocated] [line 20, size 0, align 0
!106 = metadata !{i32 786445, metadata !11, metadata !"_ZTSN4klee13ImmutableTreeIjjNS_9_IdentityIjEESt4lessIjEEE", metadata !"node", i32 65, i64 64, i64 64, i64 0, i32 1, metadata !107} ; [ DW_TAG_member ] [node] [line 65, size 64, align 64, offset 0] [p
!107 = metadata !{i32 786447, null, null, metadata !"", i32 0, i64 64, i64 64, i64 0, i32 0, metadata !"_ZTSN4klee13ImmutableTreeIjjNS_9_IdentityIjEESt4lessIjEE4NodeE"} ; [ DW_TAG_pointer_type ] [line 0, size 64, align 64, offset 0] [from _ZTSN4klee13Imm
!108 = metadata !{i32 786478, metadata !11, metadata !"_ZTSN4klee13ImmutableTreeIjjNS_9_IdentityIjEESt4lessIjEEE", metadata !"ImmutableTree", metadata !"ImmutableTree", metadata !"", i32 29, metadata !109, i1 false, i1 false, i32 0, i32 0, null, i32 256,
!109 = metadata !{i32 786453, i32 0, null, metadata !"", i32 0, i64 0, i64 0, i64 0, i32 0, null, metadata !110, i32 0, null, null, null} ; [ DW_TAG_subroutine_type ] [line 0, size 0, align 0, offset 0] [from ]
!110 = metadata !{null, metadata !111}
!111 = metadata !{i32 786447, null, null, metadata !"", i32 0, i64 64, i64 64, i64 0, i32 1088, metadata !"_ZTSN4klee13ImmutableTreeIjjNS_9_IdentityIjEESt4lessIjEEE"} ; [ DW_TAG_pointer_type ] [line 0, size 64, align 64, offset 0] [artificial] [from _ZTS
!112 = metadata !{i32 786478, metadata !11, metadata !"_ZTSN4klee13ImmutableTreeIjjNS_9_IdentityIjEESt4lessIjEEE", metadata !"ImmutableTree", metadata !"ImmutableTree", metadata !"", i32 30, metadata !113, i1 false, i1 false, i32 0, i32 0, null, i32 256,
!113 = metadata !{i32 786453, i32 0, null, metadata !"", i32 0, i64 0, i64 0, i64 0, i32 0, null, metadata !114, i32 0, null, null, null} ; [ DW_TAG_subroutine_type ] [line 0, size 0, align 0, offset 0] [from ]
!114 = metadata !{null, metadata !111, metadata !115}
!115 = metadata !{i32 786448, null, null, null, i32 0, i64 0, i64 0, i64 0, i32 0, metadata !116} ; [ DW_TAG_reference_type ] [line 0, size 0, align 0, offset 0] [from ]
!116 = metadata !{i32 786470, null, null, metadata !"", i32 0, i64 0, i64 0, i64 0, i32 0, metadata !"_ZTSN4klee13ImmutableTreeIjjNS_9_IdentityIjEESt4lessIjEEE"} ; [ DW_TAG_const_type ] [line 0, size 0, align 0, offset 0] [from _ZTSN4klee13ImmutableTreeI
!117 = metadata !{i32 786478, metadata !11, metadata !"_ZTSN4klee13ImmutableTreeIjjNS_9_IdentityIjEESt4lessIjEEE", metadata !"~ImmutableTree", metadata !"~ImmutableTree", metadata !"", i32 31, metadata !109, i1 false, i1 false, i32 0, i32 0, null, i32 25
!118 = metadata !{i32 786478, metadata !11, metadata !"_ZTSN4klee13ImmutableTreeIjjNS_9_IdentityIjEESt4lessIjEEE", metadata !"operator=", metadata !"operator=", metadata !"_ZN4klee13ImmutableTreeIjjNS_9_IdentityIjEESt4lessIjEEaSERKS5_", i32 33, metadata 
!119 = metadata !{i32 786453, i32 0, null, metadata !"", i32 0, i64 0, i64 0, i64 0, i32 0, null, metadata !120, i32 0, null, null, null} ; [ DW_TAG_subroutine_type ] [line 0, size 0, align 0, offset 0] [from ]
!120 = metadata !{metadata !121, metadata !111, metadata !115}
!121 = metadata !{i32 786448, null, null, null, i32 0, i64 0, i64 0, i64 0, i32 0, metadata !"_ZTSN4klee13ImmutableTreeIjjNS_9_IdentityIjEESt4lessIjEEE"} ; [ DW_TAG_reference_type ] [line 0, size 0, align 0, offset 0] [from _ZTSN4klee13ImmutableTreeIjjNS
!122 = metadata !{i32 786478, metadata !11, metadata !"_ZTSN4klee13ImmutableTreeIjjNS_9_IdentityIjEESt4lessIjEEE", metadata !"empty", metadata !"empty", metadata !"_ZNK4klee13ImmutableTreeIjjNS_9_IdentityIjEESt4lessIjEE5emptyEv", i32 35, metadata !123, i
!123 = metadata !{i32 786453, i32 0, null, metadata !"", i32 0, i64 0, i64 0, i64 0, i32 0, null, metadata !124, i32 0, null, null, null} ; [ DW_TAG_subroutine_type ] [line 0, size 0, align 0, offset 0] [from ]
!124 = metadata !{metadata !38, metadata !125}
!125 = metadata !{i32 786447, null, null, metadata !"", i32 0, i64 64, i64 64, i64 0, i32 1088, metadata !116} ; [ DW_TAG_pointer_type ] [line 0, size 64, align 64, offset 0] [artificial] [from ]
!126 = metadata !{i32 786478, metadata !11, metadata !"_ZTSN4klee13ImmutableTreeIjjNS_9_IdentityIjEESt4lessIjEEE", metadata !"count", metadata !"count", metadata !"_ZNK4klee13ImmutableTreeIjjNS_9_IdentityIjEESt4lessIjEE5countERKj", i32 37, metadata !127,
!127 = metadata !{i32 786453, i32 0, null, metadata !"", i32 0, i64 0, i64 0, i64 0, i32 0, null, metadata !128, i32 0, null, null, null} ; [ DW_TAG_subroutine_type ] [line 0, size 0, align 0, offset 0] [from ]
!128 = metadata !{metadata !43, metadata !125, metadata !129}
!129 = metadata !{i32 786448, null, null, null, i32 0, i64 0, i64 0, i64 0, i32 0, metadata !130} ; [ DW_TAG_reference_type ] [line 0, size 0, align 0, offset 0] [from ]
!130 = metadata !{i32 786470, null, null, metadata !"", i32 0, i64 0, i64 0, i64 0, i32 0, metadata !131} ; [ DW_TAG_const_type ] [line 0, size 0, align 0, offset 0] [from key_type]
!131 = metadata !{i32 786454, metadata !11, metadata !"_ZTSN4klee13ImmutableTreeIjjNS_9_IdentityIjEESt4lessIjEEE", metadata !"key_type", i32 23, i64 0, i64 0, i64 0, i32 0, metadata !48} ; [ DW_TAG_typedef ] [key_type] [line 23, size 0, align 0, offset 0
!132 = metadata !{i32 786478, metadata !11, metadata !"_ZTSN4klee13ImmutableTreeIjjNS_9_IdentityIjEESt4lessIjEEE", metadata !"lookup", metadata !"lookup", metadata !"_ZNK4klee13ImmutableTreeIjjNS_9_IdentityIjEESt4lessIjEE6lookupERKj", i32 38, metadata !1
!133 = metadata !{i32 786453, i32 0, null, metadata !"", i32 0, i64 0, i64 0, i64 0, i32 0, null, metadata !134, i32 0, null, null, null} ; [ DW_TAG_subroutine_type ] [line 0, size 0, align 0, offset 0] [from ]
!134 = metadata !{metadata !135, metadata !125, metadata !129}
!135 = metadata !{i32 786447, null, null, metadata !"", i32 0, i64 64, i64 64, i64 0, i32 0, metadata !136} ; [ DW_TAG_pointer_type ] [line 0, size 64, align 64, offset 0] [from ]
!136 = metadata !{i32 786470, null, null, metadata !"", i32 0, i64 0, i64 0, i64 0, i32 0, metadata !137} ; [ DW_TAG_const_type ] [line 0, size 0, align 0, offset 0] [from value_type]
!137 = metadata !{i32 786454, metadata !11, metadata !"_ZTSN4klee13ImmutableTreeIjjNS_9_IdentityIjEESt4lessIjEEE", metadata !"value_type", i32 24, i64 0, i64 0, i64 0, i32 0, metadata !48} ; [ DW_TAG_typedef ] [value_type] [line 24, size 0, align 0, offs
!138 = metadata !{i32 786478, metadata !11, metadata !"_ZTSN4klee13ImmutableTreeIjjNS_9_IdentityIjEESt4lessIjEEE", metadata !"lookup_previous", metadata !"lookup_previous", metadata !"_ZNK4klee13ImmutableTreeIjjNS_9_IdentityIjEESt4lessIjEE15lookup_previo
!139 = metadata !{i32 786478, metadata !11, metadata !"_ZTSN4klee13ImmutableTreeIjjNS_9_IdentityIjEESt4lessIjEEE", metadata !"min", metadata !"min", metadata !"_ZNK4klee13ImmutableTreeIjjNS_9_IdentityIjEESt4lessIjEE3minEv", i32 44, metadata !140, i1 fals
!140 = metadata !{i32 786453, i32 0, null, metadata !"", i32 0, i64 0, i64 0, i64 0, i32 0, null, metadata !141, i32 0, null, null, null} ; [ DW_TAG_subroutine_type ] [line 0, size 0, align 0, offset 0] [from ]
!141 = metadata !{metadata !142, metadata !125}
!142 = metadata !{i32 786448, null, null, null, i32 0, i64 0, i64 0, i64 0, i32 0, metadata !136} ; [ DW_TAG_reference_type ] [line 0, size 0, align 0, offset 0] [from ]
!143 = metadata !{i32 786478, metadata !11, metadata !"_ZTSN4klee13ImmutableTreeIjjNS_9_IdentityIjEESt4lessIjEEE", metadata !"max", metadata !"max", metadata !"_ZNK4klee13ImmutableTreeIjjNS_9_IdentityIjEESt4lessIjEE3maxEv", i32 45, metadata !140, i1 fals
!144 = metadata !{i32 786478, metadata !11, metadata !"_ZTSN4klee13ImmutableTreeIjjNS_9_IdentityIjEESt4lessIjEEE", metadata !"size", metadata !"size", metadata !"_ZNK4klee13ImmutableTreeIjjNS_9_IdentityIjEESt4lessIjEE4sizeEv", i32 46, metadata !145, i1 f
!145 = metadata !{i32 786453, i32 0, null, metadata !"", i32 0, i64 0, i64 0, i64 0, i32 0, null, metadata !146, i32 0, null, null, null} ; [ DW_TAG_subroutine_type ] [line 0, size 0, align 0, offset 0] [from ]
!146 = metadata !{metadata !43, metadata !125}
!147 = metadata !{i32 786478, metadata !11, metadata !"_ZTSN4klee13ImmutableTreeIjjNS_9_IdentityIjEESt4lessIjEEE", metadata !"insert", metadata !"insert", metadata !"_ZNK4klee13ImmutableTreeIjjNS_9_IdentityIjEESt4lessIjEE6insertERKj", i32 48, metadata !1
!148 = metadata !{i32 786453, i32 0, null, metadata !"", i32 0, i64 0, i64 0, i64 0, i32 0, null, metadata !149, i32 0, null, null, null} ; [ DW_TAG_subroutine_type ] [line 0, size 0, align 0, offset 0] [from ]
!149 = metadata !{metadata !103, metadata !125, metadata !142}
!150 = metadata !{i32 786478, metadata !11, metadata !"_ZTSN4klee13ImmutableTreeIjjNS_9_IdentityIjEESt4lessIjEEE", metadata !"replace", metadata !"replace", metadata !"_ZNK4klee13ImmutableTreeIjjNS_9_IdentityIjEESt4lessIjEE7replaceERKj", i32 49, metadata
!151 = metadata !{i32 786478, metadata !11, metadata !"_ZTSN4klee13ImmutableTreeIjjNS_9_IdentityIjEESt4lessIjEEE", metadata !"remove", metadata !"remove", metadata !"_ZNK4klee13ImmutableTreeIjjNS_9_IdentityIjEESt4lessIjEE6removeERKj", i32 50, metadata !1
!152 = metadata !{i32 786453, i32 0, null, metadata !"", i32 0, i64 0, i64 0, i64 0, i32 0, null, metadata !153, i32 0, null, null, null} ; [ DW_TAG_subroutine_type ] [line 0, size 0, align 0, offset 0] [from ]
!153 = metadata !{metadata !103, metadata !125, metadata !129}
!154 = metadata !{i32 786478, metadata !11, metadata !"_ZTSN4klee13ImmutableTreeIjjNS_9_IdentityIjEESt4lessIjEEE", metadata !"popMin", metadata !"popMin", metadata !"_ZNK4klee13ImmutableTreeIjjNS_9_IdentityIjEESt4lessIjEE6popMinERj", i32 51, metadata !15
!155 = metadata !{i32 786453, i32 0, null, metadata !"", i32 0, i64 0, i64 0, i64 0, i32 0, null, metadata !156, i32 0, null, null, null} ; [ DW_TAG_subroutine_type ] [line 0, size 0, align 0, offset 0] [from ]
!156 = metadata !{metadata !103, metadata !125, metadata !157}
!157 = metadata !{i32 786448, null, null, null, i32 0, i64 0, i64 0, i64 0, i32 0, metadata !137} ; [ DW_TAG_reference_type ] [line 0, size 0, align 0, offset 0] [from value_type]
!158 = metadata !{i32 786478, metadata !11, metadata !"_ZTSN4klee13ImmutableTreeIjjNS_9_IdentityIjEESt4lessIjEEE", metadata !"popMax", metadata !"popMax", metadata !"_ZNK4klee13ImmutableTreeIjjNS_9_IdentityIjEESt4lessIjEE6popMaxERj", i32 52, metadata !15
!159 = metadata !{i32 786478, metadata !11, metadata !"_ZTSN4klee13ImmutableTreeIjjNS_9_IdentityIjEESt4lessIjEEE", metadata !"begin", metadata !"begin", metadata !"_ZNK4klee13ImmutableTreeIjjNS_9_IdentityIjEESt4lessIjEE5beginEv", i32 54, metadata !160, i
!160 = metadata !{i32 786453, i32 0, null, metadata !"", i32 0, i64 0, i64 0, i64 0, i32 0, null, metadata !161, i32 0, null, null, null} ; [ DW_TAG_subroutine_type ] [line 0, size 0, align 0, offset 0] [from ]
!161 = metadata !{metadata !162, metadata !125}
!162 = metadata !{i32 786434, metadata !11, metadata !"_ZTSN4klee13ImmutableTreeIjjNS_9_IdentityIjEESt4lessIjEEE", metadata !"iterator", i32 140, i64 192, i64 64, i32 0, i32 0, null, metadata !163, i32 0, null, null, metadata !"_ZTSN4klee13ImmutableTreeI
!163 = metadata !{metadata !164, metadata !165, metadata !166, metadata !170, metadata !175, metadata !178, metadata !182, metadata !185, metadata !188, metadata !191, metadata !192, metadata !195}
!164 = metadata !{i32 786445, metadata !11, metadata !"_ZTSN4klee13ImmutableTreeIjjNS_9_IdentityIjEESt4lessIjEE8iteratorE", metadata !"root", i32 143, i64 64, i64 64, i64 0, i32 1, metadata !107} ; [ DW_TAG_member ] [root] [line 143, size 64, align 64, o
!165 = metadata !{i32 786445, metadata !11, metadata !"_ZTSN4klee13ImmutableTreeIjjNS_9_IdentityIjEESt4lessIjEE8iteratorE", metadata !"stack", i32 144, i64 128, i64 64, i64 64, i32 1, metadata !"_ZTSN4klee10FixedStackIPNS_13ImmutableTreeIjjNS_9_IdentityI
!166 = metadata !{i32 786478, metadata !11, metadata !"_ZTSN4klee13ImmutableTreeIjjNS_9_IdentityIjEESt4lessIjEE8iteratorE", metadata !"iterator", metadata !"iterator", metadata !"", i32 147, metadata !167, i1 false, i1 false, i32 0, i32 0, null, i32 256,
!167 = metadata !{i32 786453, i32 0, null, metadata !"", i32 0, i64 0, i64 0, i64 0, i32 0, null, metadata !168, i32 0, null, null, null} ; [ DW_TAG_subroutine_type ] [line 0, size 0, align 0, offset 0] [from ]
!168 = metadata !{null, metadata !169, metadata !107, metadata !38}
!169 = metadata !{i32 786447, null, null, metadata !"", i32 0, i64 64, i64 64, i64 0, i32 1088, metadata !"_ZTSN4klee13ImmutableTreeIjjNS_9_IdentityIjEESt4lessIjEE8iteratorE"} ; [ DW_TAG_pointer_type ] [line 0, size 64, align 64, offset 0] [artificial] [
!170 = metadata !{i32 786478, metadata !11, metadata !"_ZTSN4klee13ImmutableTreeIjjNS_9_IdentityIjEESt4lessIjEE8iteratorE", metadata !"iterator", metadata !"iterator", metadata !"", i32 154, metadata !171, i1 false, i1 false, i32 0, i32 0, null, i32 256,
!171 = metadata !{i32 786453, i32 0, null, metadata !"", i32 0, i64 0, i64 0, i64 0, i32 0, null, metadata !172, i32 0, null, null, null} ; [ DW_TAG_subroutine_type ] [line 0, size 0, align 0, offset 0] [from ]
!172 = metadata !{null, metadata !169, metadata !173}
!173 = metadata !{i32 786448, null, null, null, i32 0, i64 0, i64 0, i64 0, i32 0, metadata !174} ; [ DW_TAG_reference_type ] [line 0, size 0, align 0, offset 0] [from ]
!174 = metadata !{i32 786470, null, null, metadata !"", i32 0, i64 0, i64 0, i64 0, i32 0, metadata !"_ZTSN4klee13ImmutableTreeIjjNS_9_IdentityIjEESt4lessIjEE8iteratorE"} ; [ DW_TAG_const_type ] [line 0, size 0, align 0, offset 0] [from _ZTSN4klee13Immut
!175 = metadata !{i32 786478, metadata !11, metadata !"_ZTSN4klee13ImmutableTreeIjjNS_9_IdentityIjEESt4lessIjEE8iteratorE", metadata !"~iterator", metadata !"~iterator", metadata !"", i32 157, metadata !176, i1 false, i1 false, i32 0, i32 0, null, i32 25
!176 = metadata !{i32 786453, i32 0, null, metadata !"", i32 0, i64 0, i64 0, i64 0, i32 0, null, metadata !177, i32 0, null, null, null} ; [ DW_TAG_subroutine_type ] [line 0, size 0, align 0, offset 0] [from ]
!177 = metadata !{null, metadata !169}
!178 = metadata !{i32 786478, metadata !11, metadata !"_ZTSN4klee13ImmutableTreeIjjNS_9_IdentityIjEESt4lessIjEE8iteratorE", metadata !"operator=", metadata !"operator=", metadata !"_ZN4klee13ImmutableTreeIjjNS_9_IdentityIjEESt4lessIjEE8iteratoraSERKS6_",
!179 = metadata !{i32 786453, i32 0, null, metadata !"", i32 0, i64 0, i64 0, i64 0, i32 0, null, metadata !180, i32 0, null, null, null} ; [ DW_TAG_subroutine_type ] [line 0, size 0, align 0, offset 0] [from ]
!180 = metadata !{metadata !181, metadata !169, metadata !173}
!181 = metadata !{i32 786448, null, null, null, i32 0, i64 0, i64 0, i64 0, i32 0, metadata !"_ZTSN4klee13ImmutableTreeIjjNS_9_IdentityIjEESt4lessIjEE8iteratorE"} ; [ DW_TAG_reference_type ] [line 0, size 0, align 0, offset 0] [from _ZTSN4klee13Immutable
!182 = metadata !{i32 786478, metadata !11, metadata !"_ZTSN4klee13ImmutableTreeIjjNS_9_IdentityIjEESt4lessIjEE8iteratorE", metadata !"operator*", metadata !"operator*", metadata !"_ZN4klee13ImmutableTreeIjjNS_9_IdentityIjEESt4lessIjEE8iteratordeEv", i32
!183 = metadata !{i32 786453, i32 0, null, metadata !"", i32 0, i64 0, i64 0, i64 0, i32 0, null, metadata !184, i32 0, null, null, null} ; [ DW_TAG_subroutine_type ] [line 0, size 0, align 0, offset 0] [from ]
!184 = metadata !{metadata !142, metadata !169}
!185 = metadata !{i32 786478, metadata !11, metadata !"_ZTSN4klee13ImmutableTreeIjjNS_9_IdentityIjEESt4lessIjEE8iteratorE", metadata !"operator->", metadata !"operator->", metadata !"_ZN4klee13ImmutableTreeIjjNS_9_IdentityIjEESt4lessIjEE8iteratorptEv", i
!186 = metadata !{i32 786453, i32 0, null, metadata !"", i32 0, i64 0, i64 0, i64 0, i32 0, null, metadata !187, i32 0, null, null, null} ; [ DW_TAG_subroutine_type ] [line 0, size 0, align 0, offset 0] [from ]
!187 = metadata !{metadata !135, metadata !169}
!188 = metadata !{i32 786478, metadata !11, metadata !"_ZTSN4klee13ImmutableTreeIjjNS_9_IdentityIjEESt4lessIjEE8iteratorE", metadata !"operator==", metadata !"operator==", metadata !"_ZN4klee13ImmutableTreeIjjNS_9_IdentityIjEESt4lessIjEE8iteratoreqERKS6_
!189 = metadata !{i32 786453, i32 0, null, metadata !"", i32 0, i64 0, i64 0, i64 0, i32 0, null, metadata !190, i32 0, null, null, null} ; [ DW_TAG_subroutine_type ] [line 0, size 0, align 0, offset 0] [from ]
!190 = metadata !{metadata !38, metadata !169, metadata !173}
!191 = metadata !{i32 786478, metadata !11, metadata !"_ZTSN4klee13ImmutableTreeIjjNS_9_IdentityIjEESt4lessIjEE8iteratorE", metadata !"operator!=", metadata !"operator!=", metadata !"_ZN4klee13ImmutableTreeIjjNS_9_IdentityIjEESt4lessIjEE8iteratorneERKS6_
!192 = metadata !{i32 786478, metadata !11, metadata !"_ZTSN4klee13ImmutableTreeIjjNS_9_IdentityIjEESt4lessIjEE8iteratorE", metadata !"operator--", metadata !"operator--", metadata !"_ZN4klee13ImmutableTreeIjjNS_9_IdentityIjEESt4lessIjEE8iteratormmEv", i
!193 = metadata !{i32 786453, i32 0, null, metadata !"", i32 0, i64 0, i64 0, i64 0, i32 0, null, metadata !194, i32 0, null, null, null} ; [ DW_TAG_subroutine_type ] [line 0, size 0, align 0, offset 0] [from ]
!194 = metadata !{metadata !181, metadata !169}
!195 = metadata !{i32 786478, metadata !11, metadata !"_ZTSN4klee13ImmutableTreeIjjNS_9_IdentityIjEESt4lessIjEE8iteratorE", metadata !"operator++", metadata !"operator++", metadata !"_ZN4klee13ImmutableTreeIjjNS_9_IdentityIjEESt4lessIjEE8iteratorppEv", i
!196 = metadata !{i32 786478, metadata !11, metadata !"_ZTSN4klee13ImmutableTreeIjjNS_9_IdentityIjEESt4lessIjEEE", metadata !"end", metadata !"end", metadata !"_ZNK4klee13ImmutableTreeIjjNS_9_IdentityIjEESt4lessIjEE3endEv", i32 55, metadata !160, i1 fals
!197 = metadata !{i32 786478, metadata !11, metadata !"_ZTSN4klee13ImmutableTreeIjjNS_9_IdentityIjEESt4lessIjEEE", metadata !"find", metadata !"find", metadata !"_ZNK4klee13ImmutableTreeIjjNS_9_IdentityIjEESt4lessIjEE4findERKj", i32 56, metadata !198, i1
!198 = metadata !{i32 786453, i32 0, null, metadata !"", i32 0, i64 0, i64 0, i64 0, i32 0, null, metadata !199, i32 0, null, null, null} ; [ DW_TAG_subroutine_type ] [line 0, size 0, align 0, offset 0] [from ]
!199 = metadata !{metadata !162, metadata !125, metadata !129}
!200 = metadata !{i32 786478, metadata !11, metadata !"_ZTSN4klee13ImmutableTreeIjjNS_9_IdentityIjEESt4lessIjEEE", metadata !"lower_bound", metadata !"lower_bound", metadata !"_ZNK4klee13ImmutableTreeIjjNS_9_IdentityIjEESt4lessIjEE11lower_boundERKj", i32
!201 = metadata !{i32 786478, metadata !11, metadata !"_ZTSN4klee13ImmutableTreeIjjNS_9_IdentityIjEESt4lessIjEEE", metadata !"upper_bound", metadata !"upper_bound", metadata !"_ZNK4klee13ImmutableTreeIjjNS_9_IdentityIjEESt4lessIjEE11upper_boundERKj", i32
!202 = metadata !{i32 786478, metadata !11, metadata !"_ZTSN4klee13ImmutableTreeIjjNS_9_IdentityIjEESt4lessIjEEE", metadata !"getAllocated", metadata !"getAllocated", metadata !"_ZN4klee13ImmutableTreeIjjNS_9_IdentityIjEESt4lessIjEE12getAllocatedEv", i32
!203 = metadata !{i32 786478, metadata !11, metadata !"_ZTSN4klee13ImmutableTreeIjjNS_9_IdentityIjEESt4lessIjEEE", metadata !"ImmutableTree", metadata !"ImmutableTree", metadata !"", i32 66, metadata !204, i1 false, i1 false, i32 0, i32 0, null, i32 257,
!204 = metadata !{i32 786453, i32 0, null, metadata !"", i32 0, i64 0, i64 0, i64 0, i32 0, null, metadata !205, i32 0, null, null, null} ; [ DW_TAG_subroutine_type ] [line 0, size 0, align 0, offset 0] [from ]
!205 = metadata !{null, metadata !111, metadata !107}
!206 = metadata !{metadata !207, metadata !208, metadata !209, metadata !87}
!207 = metadata !{i32 786479, null, metadata !"K", metadata !48, null, i32 0, i32 0} ; [ DW_TAG_template_type_parameter ]
!208 = metadata !{i32 786479, null, metadata !"V", metadata !48, null, i32 0, i32 0} ; [ DW_TAG_template_type_parameter ]
!209 = metadata !{i32 786479, null, metadata !"KOV", metadata !"_ZTSN4klee9_IdentityIjEE", null, i32 0, i32 0} ; [ DW_TAG_template_type_parameter ]
!210 = metadata !{i32 786451, metadata !9, metadata !10, metadata !"_Identity<unsigned int>", i32 19, i64 8, i64 8, i32 0, i32 0, null, metadata !211, i32 0, null, metadata !221, metadata !"_ZTSN4klee9_IdentityIjEE"} ; [ DW_TAG_structure_type ] [_Identit
!211 = metadata !{metadata !212, metadata !218}
!212 = metadata !{i32 786478, metadata !9, metadata !"_ZTSN4klee9_IdentityIjEE", metadata !"operator()", metadata !"operator()", metadata !"_ZNK4klee9_IdentityIjEclERj", i32 20, metadata !213, i1 false, i1 false, i32 0, i32 0, null, i32 256, i1 false, nu
!213 = metadata !{i32 786453, i32 0, null, metadata !"", i32 0, i64 0, i64 0, i64 0, i32 0, null, metadata !214, i32 0, null, null, null} ; [ DW_TAG_subroutine_type ] [line 0, size 0, align 0, offset 0] [from ]
!214 = metadata !{metadata !215, metadata !216, metadata !215}
!215 = metadata !{i32 786448, null, null, null, i32 0, i64 0, i64 0, i64 0, i32 0, metadata !48} ; [ DW_TAG_reference_type ] [line 0, size 0, align 0, offset 0] [from unsigned int]
!216 = metadata !{i32 786447, null, null, metadata !"", i32 0, i64 64, i64 64, i64 0, i32 1088, metadata !217} ; [ DW_TAG_pointer_type ] [line 0, size 64, align 64, offset 0] [artificial] [from ]
!217 = metadata !{i32 786470, null, null, metadata !"", i32 0, i64 0, i64 0, i64 0, i32 0, metadata !"_ZTSN4klee9_IdentityIjEE"} ; [ DW_TAG_const_type ] [line 0, size 0, align 0, offset 0] [from _ZTSN4klee9_IdentityIjEE]
!218 = metadata !{i32 786478, metadata !9, metadata !"_ZTSN4klee9_IdentityIjEE", metadata !"operator()", metadata !"operator()", metadata !"_ZNK4klee9_IdentityIjEclERKj", i32 21, metadata !219, i1 false, i1 false, i32 0, i32 0, null, i32 256, i1 false, n
!219 = metadata !{i32 786453, i32 0, null, metadata !"", i32 0, i64 0, i64 0, i64 0, i32 0, null, metadata !220, i32 0, null, null, null} ; [ DW_TAG_subroutine_type ] [line 0, size 0, align 0, offset 0] [from ]
!220 = metadata !{metadata !99, metadata !216, metadata !99}
!221 = metadata !{metadata !86}
!222 = metadata !{i32 786434, metadata !11, metadata !"_ZTSN4klee13ImmutableTreeIjjNS_9_IdentityIjEESt4lessIjEEE", metadata !"Node", i32 72, i64 256, i64 64, i32 0, i32 0, null, metadata !223, i32 0, null, null, metadata !"_ZTSN4klee13ImmutableTreeIjjNS_
!223 = metadata !{metadata !224, metadata !225, metadata !226, metadata !227, metadata !228, metadata !229, metadata !230, metadata !234, metadata !237, metadata !240, metadata !241, metadata !242, metadata !245, metadata !248, metadata !251, metadata !2
!224 = metadata !{i32 786445, metadata !11, metadata !"_ZTSN4klee13ImmutableTreeIjjNS_9_IdentityIjEESt4lessIjEE4NodeE", metadata !"terminator", i32 74, i64 0, i64 0, i64 0, i32 4096, metadata !"_ZTSN4klee13ImmutableTreeIjjNS_9_IdentityIjEESt4lessIjEE4Nod
!225 = metadata !{i32 786445, metadata !11, metadata !"_ZTSN4klee13ImmutableTreeIjjNS_9_IdentityIjEESt4lessIjEE4NodeE", metadata !"left", i32 75, i64 64, i64 64, i64 0, i32 0, metadata !107} ; [ DW_TAG_member ] [left] [line 75, size 64, align 64, offset 
!226 = metadata !{i32 786445, metadata !11, metadata !"_ZTSN4klee13ImmutableTreeIjjNS_9_IdentityIjEESt4lessIjEE4NodeE", metadata !"right", i32 75, i64 64, i64 64, i64 64, i32 0, metadata !107} ; [ DW_TAG_member ] [right] [line 75, size 64, align 64, offs
!227 = metadata !{i32 786445, metadata !11, metadata !"_ZTSN4klee13ImmutableTreeIjjNS_9_IdentityIjEESt4lessIjEE4NodeE", metadata !"value", i32 76, i64 32, i64 32, i64 128, i32 0, metadata !137} ; [ DW_TAG_member ] [value] [line 76, size 32, align 32, off
!228 = metadata !{i32 786445, metadata !11, metadata !"_ZTSN4klee13ImmutableTreeIjjNS_9_IdentityIjEESt4lessIjEE4NodeE", metadata !"height", i32 77, i64 32, i64 32, i64 160, i32 0, metadata !48} ; [ DW_TAG_member ] [height] [line 77, size 32, align 32, of
!229 = metadata !{i32 786445, metadata !11, metadata !"_ZTSN4klee13ImmutableTreeIjjNS_9_IdentityIjEESt4lessIjEE4NodeE", metadata !"references", i32 77, i64 32, i64 32, i64 192, i32 0, metadata !48} ; [ DW_TAG_member ] [references] [line 77, size 32, alig
!230 = metadata !{i32 786478, metadata !11, metadata !"_ZTSN4klee13ImmutableTreeIjjNS_9_IdentityIjEESt4lessIjEE4NodeE", metadata !"Node", metadata !"Node", metadata !"", i32 80, metadata !231, i1 false, i1 false, i32 0, i32 0, null, i32 258, i1 false, nu
!231 = metadata !{i32 786453, i32 0, null, metadata !"", i32 0, i64 0, i64 0, i64 0, i32 0, null, metadata !232, i32 0, null, null, null} ; [ DW_TAG_subroutine_type ] [line 0, size 0, align 0, offset 0] [from ]
!232 = metadata !{null, metadata !233}
!233 = metadata !{i32 786447, null, null, metadata !"", i32 0, i64 64, i64 64, i64 0, i32 1088, metadata !"_ZTSN4klee13ImmutableTreeIjjNS_9_IdentityIjEESt4lessIjEE4NodeE"} ; [ DW_TAG_pointer_type ] [line 0, size 64, align 64, offset 0] [artificial] [from
!234 = metadata !{i32 786478, metadata !11, metadata !"_ZTSN4klee13ImmutableTreeIjjNS_9_IdentityIjEESt4lessIjEE4NodeE", metadata !"balance", metadata !"balance", metadata !"_ZN4klee13ImmutableTreeIjjNS_9_IdentityIjEESt4lessIjEE4Node7balanceEPS6_RKjS7_", 
!235 = metadata !{i32 786453, i32 0, null, metadata !"", i32 0, i64 0, i64 0, i64 0, i32 0, null, metadata !236, i32 0, null, null, null} ; [ DW_TAG_subroutine_type ] [line 0, size 0, align 0, offset 0] [from ]
!236 = metadata !{metadata !107, metadata !107, metadata !142, metadata !107}
!237 = metadata !{i32 786478, metadata !11, metadata !"_ZTSN4klee13ImmutableTreeIjjNS_9_IdentityIjEESt4lessIjEE4NodeE", metadata !"Node", metadata !"Node", metadata !"", i32 85, metadata !238, i1 false, i1 false, i32 0, i32 0, null, i32 256, i1 false, nu
!238 = metadata !{i32 786453, i32 0, null, metadata !"", i32 0, i64 0, i64 0, i64 0, i32 0, null, metadata !239, i32 0, null, null, null} ; [ DW_TAG_subroutine_type ] [line 0, size 0, align 0, offset 0] [from ]
!239 = metadata !{null, metadata !233, metadata !107, metadata !107, metadata !142}
!240 = metadata !{i32 786478, metadata !11, metadata !"_ZTSN4klee13ImmutableTreeIjjNS_9_IdentityIjEESt4lessIjEE4NodeE", metadata !"~Node", metadata !"~Node", metadata !"", i32 86, metadata !231, i1 false, i1 false, i32 0, i32 0, null, i32 256, i1 false, 
!241 = metadata !{i32 786478, metadata !11, metadata !"_ZTSN4klee13ImmutableTreeIjjNS_9_IdentityIjEESt4lessIjEE4NodeE", metadata !"decref", metadata !"decref", metadata !"_ZN4klee13ImmutableTreeIjjNS_9_IdentityIjEESt4lessIjEE4Node6decrefEv", i32 88, meta
!242 = metadata !{i32 786478, metadata !11, metadata !"_ZTSN4klee13ImmutableTreeIjjNS_9_IdentityIjEESt4lessIjEE4NodeE", metadata !"incref", metadata !"incref", metadata !"_ZN4klee13ImmutableTreeIjjNS_9_IdentityIjEESt4lessIjEE4Node6increfEv", i32 89, meta
!243 = metadata !{i32 786453, i32 0, null, metadata !"", i32 0, i64 0, i64 0, i64 0, i32 0, null, metadata !244, i32 0, null, null, null} ; [ DW_TAG_subroutine_type ] [line 0, size 0, align 0, offset 0] [from ]
!244 = metadata !{metadata !107, metadata !233}
!245 = metadata !{i32 786478, metadata !11, metadata !"_ZTSN4klee13ImmutableTreeIjjNS_9_IdentityIjEESt4lessIjEE4NodeE", metadata !"isTerminator", metadata !"isTerminator", metadata !"_ZN4klee13ImmutableTreeIjjNS_9_IdentityIjEESt4lessIjEE4Node12isTerminat
!246 = metadata !{i32 786453, i32 0, null, metadata !"", i32 0, i64 0, i64 0, i64 0, i32 0, null, metadata !247, i32 0, null, null, null} ; [ DW_TAG_subroutine_type ] [line 0, size 0, align 0, offset 0] [from ]
!247 = metadata !{metadata !38, metadata !233}
!248 = metadata !{i32 786478, metadata !11, metadata !"_ZTSN4klee13ImmutableTreeIjjNS_9_IdentityIjEESt4lessIjEE4NodeE", metadata !"size", metadata !"size", metadata !"_ZN4klee13ImmutableTreeIjjNS_9_IdentityIjEESt4lessIjEE4Node4sizeEv", i32 93, metadata !
!249 = metadata !{i32 786453, i32 0, null, metadata !"", i32 0, i64 0, i64 0, i64 0, i32 0, null, metadata !250, i32 0, null, null, null} ; [ DW_TAG_subroutine_type ] [line 0, size 0, align 0, offset 0] [from ]
!250 = metadata !{metadata !43, metadata !233}
!251 = metadata !{i32 786478, metadata !11, metadata !"_ZTSN4klee13ImmutableTreeIjjNS_9_IdentityIjEESt4lessIjEE4NodeE", metadata !"popMin", metadata !"popMin", metadata !"_ZN4klee13ImmutableTreeIjjNS_9_IdentityIjEESt4lessIjEE4Node6popMinERj", i32 94, met
!252 = metadata !{i32 786453, i32 0, null, metadata !"", i32 0, i64 0, i64 0, i64 0, i32 0, null, metadata !253, i32 0, null, null, null} ; [ DW_TAG_subroutine_type ] [line 0, size 0, align 0, offset 0] [from ]
!253 = metadata !{metadata !107, metadata !233, metadata !157}
!254 = metadata !{i32 786478, metadata !11, metadata !"_ZTSN4klee13ImmutableTreeIjjNS_9_IdentityIjEESt4lessIjEE4NodeE", metadata !"popMax", metadata !"popMax", metadata !"_ZN4klee13ImmutableTreeIjjNS_9_IdentityIjEESt4lessIjEE4Node6popMaxERj", i32 95, met
!255 = metadata !{i32 786478, metadata !11, metadata !"_ZTSN4klee13ImmutableTreeIjjNS_9_IdentityIjEESt4lessIjEE4NodeE", metadata !"insert", metadata !"insert", metadata !"_ZN4klee13ImmutableTreeIjjNS_9_IdentityIjEESt4lessIjEE4Node6insertERKj", i32 96, me
!256 = metadata !{i32 786453, i32 0, null, metadata !"", i32 0, i64 0, i64 0, i64 0, i32 0, null, metadata !257, i32 0, null, null, null} ; [ DW_TAG_subroutine_type ] [line 0, size 0, align 0, offset 0] [from ]
!257 = metadata !{metadata !107, metadata !233, metadata !142}
!258 = metadata !{i32 786478, metadata !11, metadata !"_ZTSN4klee13ImmutableTreeIjjNS_9_IdentityIjEESt4lessIjEE4NodeE", metadata !"replace", metadata !"replace", metadata !"_ZN4klee13ImmutableTreeIjjNS_9_IdentityIjEESt4lessIjEE4Node7replaceERKj", i32 97,
!259 = metadata !{i32 786478, metadata !11, metadata !"_ZTSN4klee13ImmutableTreeIjjNS_9_IdentityIjEESt4lessIjEE4NodeE", metadata !"remove", metadata !"remove", metadata !"_ZN4klee13ImmutableTreeIjjNS_9_IdentityIjEESt4lessIjEE4Node6removeERKj", i32 98, me
!260 = metadata !{i32 786453, i32 0, null, metadata !"", i32 0, i64 0, i64 0, i64 0, i32 0, null, metadata !261, i32 0, null, null, null} ; [ DW_TAG_subroutine_type ] [line 0, size 0, align 0, offset 0] [from ]
!261 = metadata !{metadata !107, metadata !233, metadata !129}
!262 = metadata !{i32 786434, metadata !11, metadata !10, metadata !"FixedStack<klee::ImmutableTree<unsigned int, unsigned int, klee::_Identity<unsigned int>, std::less<unsigned int> >::Node *>", i32 104, i64 128, i64 64, i32 0, i32 0, null, metadata !26
!263 = metadata !{metadata !264, metadata !265, metadata !266, metadata !268, metadata !272, metadata !277, metadata !280, metadata !285, metadata !286, metadata !289, metadata !293, metadata !297, metadata !300}
!264 = metadata !{i32 786445, metadata !11, metadata !"_ZTSN4klee10FixedStackIPNS_13ImmutableTreeIjjNS_9_IdentityIjEESt4lessIjEE4NodeEEE", metadata !"pos", i32 105, i64 32, i64 32, i64 0, i32 1, metadata !48} ; [ DW_TAG_member ] [pos] [line 105, size 32,
!265 = metadata !{i32 786445, metadata !11, metadata !"_ZTSN4klee10FixedStackIPNS_13ImmutableTreeIjjNS_9_IdentityIjEESt4lessIjEE4NodeEEE", metadata !"max", i32 105, i64 32, i64 32, i64 32, i32 1, metadata !48} ; [ DW_TAG_member ] [max] [line 105, size 32
!266 = metadata !{i32 786445, metadata !11, metadata !"_ZTSN4klee10FixedStackIPNS_13ImmutableTreeIjjNS_9_IdentityIjEESt4lessIjEE4NodeEEE", metadata !"elts", i32 106, i64 64, i64 64, i64 64, i32 1, metadata !267} ; [ DW_TAG_member ] [elts] [line 106, size
